(dp1
S'output'
p2
S"<type 'exceptions.ValueError'> timestamp out of range for platform localtime()/gmtime() function"
p3
sS'layer'
p4
S'C:\\Users\\xsarah\\Desktop\\xborlandax\\University\\cs183\\web2py\\applications\\finalproject\\controllers/gamedata.py'
p5
sS'code'
p6
S'# pulls data about games and puts them into the database.\n\n#Key for Game database : https://market.mashape.com/igdbcom/internet-game-database\nIGBDkey = "kUe3uZXJcSmshT3CXf5O16Z7DPUjp1n5R0NjsnMr9K0qItyY2Q"\n\nIBGDurl= "https://igdbcom-internet-game-database-v1.p.mashape.com/games/"\n\nimport requests\nimport time, datetime\n#GLOBAL VARIABLES DON\'T TOUCH#\nMONTHS = {\'01\' : "January",\'02\' : "February",\'03\' : "March",\'04\' : "April",\'06\' : "May",\'07\' : "June",\'08\' : "July",\'09\' : "August",\'10\' : "September",\'11\' : "November",\'12\' : "December",\n}\nPLATFORMS ={\n"132" : "Amazon Fire TV", "131" : "Nintendo PlayStation", "130" : "NX", "129" : "Texas Instruments TI-99", "128" : "PC Engine SuperGrafx", "127" : "Fairchild Channel F", "126" : "TRS-80", "125" : "PC-8801", "124" : "SwanCrystal", "123" : "WonderSwan Color", "122" : "Nuon", "121" : "Sharp X68000", "120" : "Neo Geo Pocket Color", "119" : "Neo Geo Pocket", "118" : "FM Towns", "117" : "Philips CD-i", "116" : "Acorn Archimedes", "115" : "Apple IIGS", "114" : "Amiga CD32", "113" : "OnLive Game System", "112" : "Microcomputer", "111" : "Imlac PDS-1", "110" : "PLATO", "109" : "CDC Cyber 70", "108" : "PDP-11", "107" : "Call-A-Computer time-shared mainframe computer system", "106" : "SDS Sigma 7", "105" : "HP 3000", "104" : "HP 2100", "103" : "PDP-7", "102" : "EDSAC", "101" : "Ferranti Nimrod Computer", "100" : "Analogue electronics", "99" : "Family Computer", "98" : "DEC GT40", "97" : "PDP-8", "96" : "PDP-10", "95" : "PDP-1", "94" : "Commodore Plus/4", "93" : "Commodore 16", "92" : "SteamOS", "91" : "Bally Astrocade", "90" : "Commodore PET", "89" : "Microvision", "88" : "Odyssey", "87" : "Virtual Boy", "86" : "TurboGrafx-16/PC Engine", "85" : "Donner Model 30", "84" : "SG-1000", "82" : "Web browser", "80" : "Neo Geo AES", "79" : "Neo Geo MVS", "78" : "Sega CD", "77" : "Sharp X1", "75" : "Apple II", "74" : "Windows Phone", "73" : "BlackBerry OS", "72" : "Ouya", "71" : "Commodore VIC-20", "70" : "Vectrex", "69" : "BBC Microcomputer System", "68" : "ColecoVision", "67" : "Intellivision", "66" : "Atari 5200", "65" : "Atari 8-bit", "64" : "Sega Master System", "63" : "Atari ST/STE", "62" : "Atari Jaguar", "61" : "Atari Lynx", "60" : "Atari 7800", "59" : "Atari 2600", "58" : "Super Famicom", "57" : "WonderSwan", "56" : "WiiWare", "55" : "Mobile", "53" : "MSX2", "52" : "Arcade", "51" : "Family Computer Disk System", "50" : "3DO Interactive Multiplayer", "49" : "Xbox One", "48" : "PlayStation 4", "47" : "Virtual Console (Nintendo)", "46" : "PlayStation Vita", "45" : "PlayStation Network", "44" : "Tapwave Zodiac", "42" : "N-Gage", "41" : "Wii U", "39" : "iOS", "38" : "PlayStation Portable", "37" : "Nintendo 3DS", "36" : "Xbox Live Arcade", "35" : "Sega Game Gear", "34" : "Android", "33" : "Game Boy", "32" : "Sega Saturn", "30" : "Sega 32X", "29" : "Sega Mega Drive/Genesis", "27" : "MSX", "26" : "ZX Spectrum", "25" : "Amstrad CPC", "24" : "Game Boy Advance", "23" : "Dreamcast", "22" : "Game Boy Color", "21" : "Nintendo GameCube", "20" : "Nintendo DS", "19" : "Super Nintendo Entertainment System (SNES)", "18" : "Nintendo Entertainment System (NES)", "16" : "Amiga", "15" : "Commodore C64/128", "14" : "Mac", "13" : "PC DOS", "12" : "Xbox 360", "11" : "Xbox", "9" : "PlayStation 3", "8" : "PlayStation 2", "7" : "PlayStation", "6" : "PC (Microsoft Windows)", "5" : "Wii", "4" : "Nintendo 64", "3" : "Linux",    \n}\nREGIONS = {\n"8":"World Wide", "1":"Europe","2":"North America", "3":"Australia", "4":"New Zealand","5":"Japan","6":"China","7":"Asia"\n}\n\n#Grabs the games that come out that month and year\n#Month is a value from 01 to 12 (MUST INCLUDE THE 0 for single digits)\n#Year is any valid year value \ndef get_games():\n    month = int(request.vars.month)\n    year = int(request.vars.year)\n    #handles Dec-Jan case where\n    #December overlaps with January\n    nextMonth=month+1\n    nextYear = year\n    if (month==12):\n        nextMonth = "01"\n        nextYear = year+1\n    month = str(month)\n    year = str(year)\n    nextMonth = str(nextMonth)\n    nextYear = str(nextYear)\n    \n    game_list=[]\n    \n    #Because we are only allowed to pull 50 objects per request, I split up\n    #the month into thirds to cover all the possible days of the month for new\n    #releases.\n    resWeekA = ibgdRequestHelper(year+"-"+month+"-01",year+"-"+month+"-10")\n    resWeekB = ibgdRequestHelper(year+"-"+month+"-11",year+"-"+month+"-20")\n    resWeekC = ibgdRequestHelper(year+"-"+month+"-21",nextYear+"-"+nextMonth+"-01")\n    #put all the weeks into a list for easy access\n    gameMonth = [resWeekA,resWeekB,resWeekC]\n    currentTime = int(time.time())\n    #TODO: Throwing an error for a bad status code\n    if((resWeekA.status_code==200) and (resWeekB.status_code==200) and (resWeekC.status_code==200)):\n        #go through each week...\n        for week in gameMonth:\n            weekResponse = week.json()\n            for gameData in weekResponse:\n                #get the game\'s name and id\n                game = dict(\n                    name = gameData[\'name\'].encode("utf-8"),\n                    id = gameData[\'id\'],\n                    release = []\n                )\n                #the game\'s release date is divided up by information on\n                #region, platform and date. Region & Platform is added to global_variables\n                #See https://market.mashape.com/igdbcom/internet-game-database/overview\n                for releaseData in gameData[\'release_dates\']:\n                    s = int(releaseData[\'date\'])\n                    realDate = datetime.datetime.fromtimestamp(s).strftime(\'%Y-%m-%d %H:%M:%S.%f\')\n                    gameRelease = dict(\n                        date = realDate,\n                        #get the platform name\n                        platform = PLATFORMS[str(releaseData[\'platform\'])],\n                        region = "World Wide"\n                    )\n                    if \'region\' in releaseData:\n                         gameRelease[\'region\']= REGIONS[str(releaseData[\'region\'])]\n                game[\'release\'].append(gameRelease)\n                game_list.append(game)  \n    for g in game_list:\n        print g\n    return response.json(dict(\n        game_list=game_list,\n    ))\n\n#helper for get_games\ndef ibgdRequestHelper(date1,date2):\n    print IBGDurl+"?fields=name,release_dates&limit=50&filter[release_dates.date][gt]="+date1+"&filter[release_dates.date][lte]="+date2\n    response = requests.get(IBGDurl+"?fields=name,release_dates&limit=50&filter[release_dates.date][gt]="+date1+"&filter[release_dates.date][lte]="+date2,\n        headers={\n            "X-Mashape-Key": IGBDkey,\n            "Accept": "application/json"\n        }\n    )\n    return response\n\n#testing\n#get_games(11,2016)\n\n\n\n\n\nresponse._vars=response._caller(get_games)\n'
p7
sS'snapshot'
p8
(dp9
S'exception'
p10
(dp11
S'__hash__'
p12
S"<method-wrapper '__hash__' of exceptions.ValueError object>"
p13
sS'__setattr__'
p14
S"<method-wrapper '__setattr__' of exceptions.ValueError object>"
p15
sS'__reduce_ex__'
p16
S'<built-in method __reduce_ex__ of exceptions.ValueError object>'
p17
sS'__getslice__'
p18
S"<method-wrapper '__getslice__' of exceptions.ValueError object>"
p19
sS'__getitem__'
p20
S"<method-wrapper '__getitem__' of exceptions.ValueError object>"
p21
sS'__setstate__'
p22
S'<built-in method __setstate__ of exceptions.ValueError object>'
p23
sS'__reduce__'
p24
S'<built-in method __reduce__ of exceptions.ValueError object>'
p25
sS'__str__'
p26
S"<method-wrapper '__str__' of exceptions.ValueError object>"
p27
sS'__format__'
p28
S'<built-in method __format__ of exceptions.ValueError object>'
p29
sS'__getattribute__'
p30
S"<method-wrapper '__getattribute__' of exceptions.ValueError object>"
p31
sS'__class__'
p32
S"<type 'exceptions.ValueError'>"
p33
sS'__unicode__'
p34
S'<built-in method __unicode__ of exceptions.ValueError object>'
p35
sS'__delattr__'
p36
S"<method-wrapper '__delattr__' of exceptions.ValueError object>"
p37
sS'__subclasshook__'
p38
S'<built-in method __subclasshook__ of type object>'
p39
sS'__repr__'
p40
S"<method-wrapper '__repr__' of exceptions.ValueError object>"
p41
sS'args'
p42
S"('timestamp out of range for platform localtime()/gmtime() function',)"
p43
sS'__dict__'
p44
S'{}'
p45
sS'__sizeof__'
p46
S'<built-in method __sizeof__ of exceptions.ValueError object>'
p47
sS'__doc__'
p48
S"'Inappropriate argument value (of correct type).'"
p49
sS'__init__'
p50
S"<method-wrapper '__init__' of exceptions.ValueError object>"
p51
sS'__new__'
p52
S'<built-in method __new__ of type object>'
p53
ssS'evalue'
p54
S'timestamp out of range for platform localtime()/gmtime() function'
p55
sS'request'
p56
cgluon.html
XML_unpickle
p57
(S'sqn\x00\x00<div><table><tr><td style="font-weight:bold;vertical-align:top;">ajax</td><td style="vertical-align:top;">:</td><td><div>False</div></td></tr><tr><td style="font-weight:bold;vertical-align:top;">application</td><td style="vertical-align:top;">:</td><td><div>finalproject</div></td></tr><tr><td style="font-weight:bold;vertical-align:top;">args</td><td style="vertical-align:top;">:</td><td><div><table></table></div></td></tr><tr><td style="font-weight:bold;vertical-align:top;">cid</td><td style="vertical-align:top;">:</td><td><div>None</div></td></tr><tr><td style="font-weight:bold;vertical-align:top;">client</td><td style="vertical-align:top;">:</td><td><div>127.0.0.1</div></td></tr><tr><td style="font-weight:bold;vertical-align:top;">controller</td><td style="vertical-align:top;">:</td><td><div>gamedata</div></td></tr><tr><td style="font-weight:bold;vertical-align:top;">cookies</td><td style="vertical-align:top;">:</td><td><div><table><tr><td style="font-weight:bold;vertical-align:top;">session_id_1234</td><td style="vertical-align:top;">:</td><td><div>1:a60eb1c7-bfd8-483b-b5da-eee9be37b5e2<table><tr><td style="font-weight:bold;vertical-align:top;">comment</td><td style="vertical-align:top;">:</td><td><div></div></td></tr><tr><td style="font-weight:bold;vertical-align:top;">domain</td><td style="vertical-align:top;">:</td><td><div></div></td></tr><tr><td style="font-weight:bold;vertical-align:top;">expires</td><td style="vertical-align:top;">:</td><td><div></div></td></tr><tr><td style="font-weight:bold;vertical-align:top;">httponly</td><td style="vertical-align:top;">:</td><td><div></div></td></tr><tr><td style="font-weight:bold;vertical-align:top;">max-age</td><td style="vertical-align:top;">:</td><td><div></div></td></tr><tr><td style="font-weight:bold;vertical-align:top;">path</td><td style="vertical-align:top;">:</td><td><div></div></td></tr><tr><td style="font-weight:bold;vertical-align:top;">secure</td><td style="vertical-align:top;">:</td><td><div></div></td></tr><tr><td style="font-weight:bold;vertical-align:top;">version</td><td style="vertical-align:top;">:</td><td><div></div></td></tr></table></div></td></tr><tr><td style="font-weight:bold;vertical-align:top;">session_id_admin</td><td style="vertical-align:top;">:</td><td><div>127.0.0.1-e5d4a725-7114-45eb-99f8-e0663e998d90<table><tr><td style="font-weight:bold;vertical-align:top;">comment</td><td style="vertical-align:top;">:</td><td><div></div></td></tr><tr><td style="font-weight:bold;vertical-align:top;">domain</td><td style="vertical-align:top;">:</td><td><div></div></td></tr><tr><td style="font-weight:bold;vertical-align:top;">expires</td><td style="vertical-align:top;">:</td><td><div></div></td></tr><tr><td style="font-weight:bold;vertical-align:top;">httponly</td><td style="vertical-align:top;">:</td><td><div></div></td></tr><tr><td style="font-weight:bold;vertical-align:top;">max-age</td><td style="vertical-align:top;">:</td><td><div></div></td></tr><tr><td style="font-weight:bold;vertical-align:top;">path</td><td style="vertical-align:top;">:</td><td><div></div></td></tr><tr><td style="font-weight:bold;vertical-align:top;">secure</td><td style="vertical-align:top;">:</td><td><div></div></td></tr><tr><td style="font-weight:bold;vertical-align:top;">version</td><td style="vertical-align:top;">:</td><td><div></div></td></tr></table></div></td></tr><tr><td style="font-weight:bold;vertical-align:top;">session_id_finalproject</td><td style="vertical-align:top;">:</td><td><div>1:a4eeec94-110b-417f-82a0-ae852bd0f148<table><tr><td style="font-weight:bold;vertical-align:top;">comment</td><td style="vertical-align:top;">:</td><td><div></div></td></tr><tr><td style="font-weight:bold;vertical-align:top;">domain</td><td style="vertical-align:top;">:</td><td><div></div></td></tr><tr><td style="font-weight:bold;vertical-align:top;">expires</td><td style="vertical-align:top;">:</td><td><div></div></td></tr><tr><td style="font-weight:bold;vertical-align:top;">httponly</td><td style="vertical-align:top;">:</td><td><div></div></td></tr><tr><td style="font-weight:bold;vertical-align:top;">max-age</td><td style="vertical-align:top;">:</td><td><div></div></td></tr><tr><td style="font-weight:bold;vertical-align:top;">path</td><td style="vertical-align:top;">:</td><td><div></div></td></tr><tr><td style="font-weight:bold;vertical-align:top;">secure</td><td style="vertical-align:top;">:</td><td><div></div></td></tr><tr><td style="font-weight:bold;vertical-align:top;">version</td><td style="vertical-align:top;">:</td><td><div></div></td></tr></table></div></td></tr><tr><td style="font-weight:bold;vertical-align:top;">session_id_hw2</td><td style="vertical-align:top;">:</td><td><div>22:91d61c07-0e20-425b-837e-7e86aed4cd0e<table><tr><td style="font-weight:bold;vertical-align:top;">comment</td><td style="vertical-align:top;">:</td><td><div></div></td></tr><tr><td style="font-weight:bold;vertical-align:top;">domain</td><td style="vertical-align:top;">:</td><td><div></div></td></tr><tr><td style="font-weight:bold;vertical-align:top;">expires</td><td style="vertical-align:top;">:</td><td><div></div></td></tr><tr><td style="font-weight:bold;vertical-align:top;">httponly</td><td style="vertical-align:top;">:</td><td><div></div></td></tr><tr><td style="font-weight:bold;vertical-align:top;">max-age</td><td style="vertical-align:top;">:</td><td><div></div></td></tr><tr><td style="font-weight:bold;vertical-align:top;">path</td><td style="vertical-align:top;">:</td><td><div></div></td></tr><tr><td style="font-weight:bold;vertical-align:top;">secure</td><td style="vertical-align:top;">:</td><td><div></div></td></tr><tr><td style="font-weight:bold;vertical-align:top;">version</td><td style="vertical-align:top;">:</td><td><div></div></td></tr></table></div></td></tr><tr><td style="font-weight:bold;vertical-align:top;">session_id_hw3</td><td style="vertical-align:top;">:</td><td><div>20:e44167fe-857a-4a70-ae8b-f9e37b075ce3<table><tr><td style="font-weight:bold;vertical-align:top;">comment</td><td style="vertical-align:top;">:</td><td><div></div></td></tr><tr><td style="font-weight:bold;vertical-align:top;">domain</td><td style="vertical-align:top;">:</td><td><div></div></td></tr><tr><td style="font-weight:bold;vertical-align:top;">expires</td><td style="vertical-align:top;">:</td><td><div></div></td></tr><tr><td style="font-weight:bold;vertical-align:top;">httponly</td><td style="vertical-align:top;">:</td><td><div></div></td></tr><tr><td style="font-weight:bold;vertical-align:top;">max-age</td><td style="vertical-align:top;">:</td><td><div></div></td></tr><tr><td style="font-weight:bold;vertical-align:top;">path</td><td style="vertical-align:top;">:</td><td><div></div></td></tr><tr><td style="font-weight:bold;vertical-align:top;">secure</td><td style="vertical-align:top;">:</td><td><div></div></td></tr><tr><td style="font-weight:bold;vertical-align:top;">version</td><td style="vertical-align:top;">:</td><td><div></div></td></tr></table></div></td></tr><tr><td style="font-weight:bold;vertical-align:top;">session_id_welcome</td><td style="vertical-align:top;">:</td><td><div>127.0.0.1-b5af15ae-dd5a-44b0-afd4-154db16a02ad<table><tr><td style="font-weight:bold;vertical-align:top;">comment</td><td style="vertical-align:top;">:</td><td><div></div></td></tr><tr><td style="font-weight:bold;vertical-align:top;">domain</td><td style="vertical-align:top;">:</td><td><div></div></td></tr><tr><td style="font-weight:bold;vertical-align:top;">expires</td><td style="vertical-align:top;">:</td><td><div></div></td></tr><tr><td style="font-weight:bold;vertical-align:top;">httponly</td><td style="vertical-align:top;">:</td><td><div></div></td></tr><tr><td style="font-weight:bold;vertical-align:top;">max-age</td><td style="vertical-align:top;">:</td><td><div></div></td></tr><tr><td style="font-weight:bold;vertical-align:top;">path</td><td style="vertical-align:top;">:</td><td><div></div></td></tr><tr><td style="font-weight:bold;vertical-align:top;">secure</td><td style="vertical-align:top;">:</td><td><div></div></td></tr><tr><td style="font-weight:bold;vertical-align:top;">version</td><td style="vertical-align:top;">:</td><td><div></div></td></tr></table></div></td></tr></table></div></td></tr><tr><td style="font-weight:bold;vertical-align:top;">env</td><td style="vertical-align:top;">:</td><td><div><table><tr><td style="font-weight:bold;vertical-align:top;">HTTP_ACCEPT</td><td style="vertical-align:top;">:</td><td><div>text/html,application/xhtml+xml,application/xml;q=0.9,image/webp,*/*;q=0.8</div></td></tr><tr><td style="font-weight:bold;vertical-align:top;">HTTP_ACCEPT_ENCODING</td><td style="vertical-align:top;">:</td><td><div>gzip, deflate, sdch</div></td></tr><tr><td style="font-weight:bold;vertical-align:top;">HTTP_ACCEPT_LANGUAGE</td><td style="vertical-align:top;">:</td><td><div>en-US,en;q=0.8</div></td></tr><tr><td style="font-weight:bold;vertical-align:top;">HTTP_CONNECTION</td><td style="vertical-align:top;">:</td><td><div>keep-alive</div></td></tr><tr><td style="font-weight:bold;vertical-align:top;">HTTP_COOKIE</td><td style="vertical-align:top;">:</td><td><div>session_id_hw2=&quot;22:91d61c07-0e20-425b-837e-7e86aed4cd0e&quot;; session_id_hw3=&quot;20:e44167fe-857a-4a70-ae8b-f9e37b075ce3&quot;; session_id_1234=&quot;1:a60eb1c7-bfd8-483b-b5da-eee9be37b5e2&quot;; session_id_welcome=127.0.0.1-b5af15ae-dd5a-44b0-afd4-154db16a02ad; session_id_admin=127.0.0.1-e5d4a725-7114-45eb-99f8-e0663e998d90; session_id_finalproject=&quot;1:a4eeec94-110b-417f-82a0-ae852bd0f148&quot;</div></td></tr><tr><td style="font-weight:bold;vertical-align:top;">HTTP_HOST</td><td style="vertical-align:top;">:</td><td><div>127.0.0.1:8000</div></td></tr><tr><td style="font-weight:bold;vertical-align:top;">HTTP_UPGRADE_INSECURE_REQUESTS</td><td style="vertical-align:top;">:</td><td><div>1</div></td></tr><tr><td style="font-weight:bold;vertical-align:top;">HTTP_USER_AGENT</td><td style="vertical-align:top;">:</td><td><div>Mozilla/5.0 (Windows NT 6.3; WOW64) AppleWebKit/537.36 (KHTML, like Gecko) Chrome/53.0.2785.143 Safari/537.36</div></td></tr><tr><td style="font-weight:bold;vertical-align:top;">PATH_INFO</td><td style="vertical-align:top;">:</td><td><div>/finalproject/gamedata/get_games</div></td></tr><tr><td style="font-weight:bold;vertical-align:top;">QUERY_STRING</td><td style="vertical-align:top;">:</td><td><div>month=11&amp;year=2016</div></td></tr><tr><td style="font-weight:bold;vertical-align:top;">REMOTE_ADDR</td><td style="vertical-align:top;">:</td><td><div>127.0.0.1</div></td></tr><tr><td style="font-weight:bold;vertical-align:top;">REMOTE_PORT</td><td style="vertical-align:top;">:</td><td><div>63769</div></td></tr><tr><td style="font-weight:bold;vertical-align:top;">REQUEST_METHOD</td><td style="vertical-align:top;">:</td><td><div>GET</div></td></tr><tr><td style="font-weight:bold;vertical-align:top;">SCRIPT_NAME</td><td style="vertical-align:top;">:</td><td><div></div></td></tr><tr><td style="font-weight:bold;vertical-align:top;">SERVER_NAME</td><td style="vertical-align:top;">:</td><td><div>SAB</div></td></tr><tr><td style="font-weight:bold;vertical-align:top;">SERVER_PORT</td><td style="vertical-align:top;">:</td><td><div>8000</div></td></tr><tr><td style="font-weight:bold;vertical-align:top;">SERVER_PROTOCOL</td><td style="vertical-align:top;">:</td><td><div>HTTP/1.1</div></td></tr><tr><td style="font-weight:bold;vertical-align:top;">SERVER_SOFTWARE</td><td style="vertical-align:top;">:</td><td><div>Rocket 1.2.6</div></td></tr><tr><td style="font-weight:bold;vertical-align:top;">app_folders</td><td style="vertical-align:top;">:</td><td><div>set([&#x27;C:\\\\Users\\\\xsarah\\\\Desktop\\\\xborlandax\\\\University\\\\cs183\\\\web2py\\\\applications\\\\finalproject\\\\&#x27;, &#x27;C:\\\\Users\\\\xsarah\\\\Desktop\\\\xborlandax\\\\University\\\\cs183\\\\web2py\\\\applications\\\\admin\\\\&#x27;, &#x27;C:\\\\Users\\\\xsarah\\\\Desktop\\\\xborlandax\\\\University\\\\cs183\\\\web2py\\\\applications\\\\welcome\\\\&#x27;])</div></td></tr><tr><td style="font-weight:bold;vertical-align:top;">applications_parent</td><td style="vertical-align:top;">:</td><td><div>C:\\Users\\xsarah\\Desktop\\xborlandax\\University\\cs183\\web2py</div></td></tr><tr><td style="font-weight:bold;vertical-align:top;">cmd_args</td><td style="vertical-align:top;">:</td><td><div><table></table></div></td></tr><tr><td style="font-weight:bold;vertical-align:top;">cmd_options</td><td style="vertical-align:top;">:</td><td><div>&lt;Values at 0x2d12fa8: {&#x27;verbose&#x27;: False, &#x27;ip&#x27;: &#x27;127.0.0.1&#x27;, &#x27;debuglevel&#x27;: 30, &#x27;with_scheduler&#x27;: False, &#x27;shutdown_timeout&#x27;: 5, &#x27;taskbar&#x27;: False, &#x27;with_coverage&#x27;: False, &#x27;pid_filename&#x27;: &#x27;httpserver.pid&#x27;, &#x27;maxthreads&#x27;: None, &#x27;softcron&#x27;: False, &#x27;server_name&#x27;: &#x27;SAB&#x27;, &#x27;bpython&#x27;: False, &#x27;nogui&#x27;: False, &#x27;port&#x27;: 8000, &#x27;print_errors&#x27;: False, &#x27;extcron&#x27;: False, &#x27;runcron&#x27;: False, &#x27;run_system_tests&#x27;: False, &#x27;test&#x27;: None, &#x27;folder&#x27;: &#x27;C:\\\\Users\\\\xsarah\\\\Desktop\\\\xborlandax\\\\University\\\\cs183\\\\web2py&#x27;, &#x27;config&#x27;: &#x27;&#x27;, &#x27;minthreads&#x27;: None, &#x27;shell&#x27;: None, &#x27;run&#x27;: &#x27;&#x27;, &#x27;log_filename&#x27;: &#x27;httpserver.log&#x27;, &#x27;profiler_dir&#x27;: None, &#x27;args&#x27;: [&#x27;&#x27;], &#x27;socket_timeout&#x27;: 5, &#x27;ssl_ca_certificate&#x27;: None, &#x27;scheduler&#x27;: None, &#x27;interfaces&#x27;: None, &#x27;ssl_private_key&#x27;: &#x27;&#x27;, &#x27;gae&#x27;: None, &#x27;password&#x27;: &#x27;******&#x27;, &#x27;request_queue_size&#x27;: 5, &#x27;ssl_certificate&#x27;: &#x27;&#x27;, &#x27;cronjob&#x27;: False, &#x27;numthreads&#x27;: None, &#x27;quiet&#x27;: False, &#x27;import_models&#x27;: False, &#x27;timeout&#x27;: 10, &#x27;plain&#x27;: False, &#x27;nobanner&#x27;: False}&gt;</div></td></tr><tr><td style="font-weight:bold;vertical-align:top;">db_sessions</td><td style="vertical-align:top;">:</td><td><div>set([&#x27;finalproject&#x27;])</div></td></tr><tr><td style="font-weight:bold;vertical-align:top;">debugging</td><td style="vertical-align:top;">:</td><td><div>False</div></td></tr><tr><td style="font-weight:bold;vertical-align:top;">gluon_parent</td><td style="vertical-align:top;">:</td><td><div>C:\\Users\\xsarah\\Desktop\\xborlandax\\University\\cs183\\web2py</div></td></tr><tr><td style="font-weight:bold;vertical-align:top;">http_accept</td><td style="vertical-align:top;">:</td><td><div>text/html,application/xhtml+xml,application/xml;q=0.9,image/webp,*/*;q=0.8</div></td></tr><tr><td style="font-weight:bold;vertical-align:top;">http_accept_encoding</td><td style="vertical-align:top;">:</td><td><div>gzip, deflate, sdch</div></td></tr><tr><td style="font-weight:bold;vertical-align:top;">http_accept_language</td><td style="vertical-align:top;">:</td><td><div>en-US,en;q=0.8</div></td></tr><tr><td style="font-weight:bold;vertical-align:top;">http_connection</td><td style="vertical-align:top;">:</td><td><div>keep-alive</div></td></tr><tr><td style="font-weight:bold;vertical-align:top;">http_cookie</td><td style="vertical-align:top;">:</td><td><div>session_id_hw2=&quot;22:91d61c07-0e20-425b-837e-7e86aed4cd0e&quot;; session_id_hw3=&quot;20:e44167fe-857a-4a70-ae8b-f9e37b075ce3&quot;; session_id_1234=&quot;1:a60eb1c7-bfd8-483b-b5da-eee9be37b5e2&quot;; session_id_welcome=127.0.0.1-b5af15ae-dd5a-44b0-afd4-154db16a02ad; session_id_admin=127.0.0.1-e5d4a725-7114-45eb-99f8-e0663e998d90; session_id_finalproject=&quot;1:a4eeec94-110b-417f-82a0-ae852bd0f148&quot;</div></td></tr><tr><td style="font-weight:bold;vertical-align:top;">http_host</td><td style="vertical-align:top;">:</td><td><div>127.0.0.1:8000</div></td></tr><tr><td style="font-weight:bold;vertical-align:top;">http_upgrade_insecure_requests</td><td style="vertical-align:top;">:</td><td><div>1</div></td></tr><tr><td style="font-weight:bold;vertical-align:top;">http_user_agent</td><td style="vertical-align:top;">:</td><td><div>Mozilla/5.0 (Windows NT 6.3; WOW64) AppleWebKit/537.36 (KHTML, like Gecko) Chrome/53.0.2785.143 Safari/537.36</div></td></tr><tr><td style="font-weight:bold;vertical-align:top;">is_jython</td><td style="vertical-align:top;">:</td><td><div>False</div></td></tr><tr><td style="font-weight:bold;vertical-align:top;">is_pypy</td><td style="vertical-align:top;">:</td><td><div>False</div></td></tr><tr><td style="font-weight:bold;vertical-align:top;">is_source</td><td style="vertical-align:top;">:</td><td><div>True</div></td></tr><tr><td style="font-weight:bold;vertical-align:top;">local_hosts</td><td style="vertical-align:top;">:</td><td><div><table><tr><td><div>192.168.1.27</div></td></tr><tr><td><div>SAB</div></td></tr><tr><td><div>2001:0:9d38:90d7:30e3:484:3f57:fee4</div></td></tr><tr><td><div>::ffff:127.0.0.1</div></td></tr><tr><td><div>::1</div></td></tr><tr><td><div>fe80::f907:4247:a6c1:59ac%8</div></td></tr><tr><td><div>fe80::30e3:484:3f57:fee4%5</div></td></tr><tr><td><div>fe80::bceb:fcc3:2a79:f927%3</div></td></tr><tr><td><div>127.0.0.1</div></td></tr><tr><td><div>192.168.56.1</div></td></tr></table></div></td></tr><tr><td style="font-weight:bold;vertical-align:top;">path_info</td><td style="vertical-align:top;">:</td><td><div>/finalproject/gamedata/get_games</div></td></tr><tr><td style="font-weight:bold;vertical-align:top;">query_string</td><td style="vertical-align:top;">:</td><td><div>month=11&amp;year=2016</div></td></tr><tr><td style="font-weight:bold;vertical-align:top;">remote_addr</td><td style="vertical-align:top;">:</td><td><div>127.0.0.1</div></td></tr><tr><td style="font-weight:bold;vertical-align:top;">remote_port</td><td style="vertical-align:top;">:</td><td><div>63769</div></td></tr><tr><td style="font-weight:bold;vertical-align:top;">request_method</td><td style="vertical-align:top;">:</td><td><div>GET</div></td></tr><tr><td style="font-weight:bold;vertical-align:top;">request_uri</td><td style="vertical-align:top;">:</td><td><div>/finalproject/gamedata/get_games?month=11&amp;year=2016</div></td></tr><tr><td style="font-weight:bold;vertical-align:top;">script_name</td><td style="vertical-align:top;">:</td><td><div></div></td></tr><tr><td style="font-weight:bold;vertical-align:top;">server_name</td><td style="vertical-align:top;">:</td><td><div>SAB</div></td></tr><tr><td style="font-weight:bold;vertical-align:top;">server_port</td><td style="vertical-align:top;">:</td><td><div>8000</div></td></tr><tr><td style="font-weight:bold;vertical-align:top;">server_protocol</td><td style="vertical-align:top;">:</td><td><div>HTTP/1.1</div></td></tr><tr><td style="font-weight:bold;vertical-align:top;">server_software</td><td style="vertical-align:top;">:</td><td><div>Rocket 1.2.6</div></td></tr><tr><td style="font-weight:bold;vertical-align:top;">web2py_path</td><td style="vertical-align:top;">:</td><td><div>C:\\Users\\xsarah\\Desktop\\xborlandax\\University\\cs183\\web2py</div></td></tr><tr><td style="font-weight:bold;vertical-align:top;">web2py_version</td><td style="vertical-align:top;">:</td><td><div>2.14.6-stable+timestamp.2016.05.10.00.21.47</div></td></tr><tr><td style="font-weight:bold;vertical-align:top;">wsgi.errors</td><td style="vertical-align:top;">:</td><td><div>&lt;open file &#x27;&lt;stderr&gt;&#x27;, mode &#x27;w&#x27; at 0x0041D0D0&gt;</div></td></tr><tr><td style="font-weight:bold;vertical-align:top;">wsgi.file_wrapper</td><td style="vertical-align:top;">:</td><td><div>&lt;class wsgiref.util.FileWrapper at 0x02CD2B58&gt;</div></td></tr><tr><td style="font-weight:bold;vertical-align:top;">wsgi.input</td><td style="vertical-align:top;">:</td><td><div>&lt;socket._fileobject object at 0x03F343F0&gt;</div></td></tr><tr><td style="font-weight:bold;vertical-align:top;">wsgi.multiprocess</td><td style="vertical-align:top;">:</td><td><div>False</div></td></tr><tr><td style="font-weight:bold;vertical-align:top;">wsgi.multithread</td><td style="vertical-align:top;">:</td><td><div>True</div></td></tr><tr><td style="font-weight:bold;vertical-align:top;">wsgi.run_once</td><td style="vertical-align:top;">:</td><td><div>False</div></td></tr><tr><td style="font-weight:bold;vertical-align:top;">wsgi.url_scheme</td><td style="vertical-align:top;">:</td><td><div>http</div></td></tr><tr><td style="font-weight:bold;vertical-align:top;">wsgi.version</td><td style="vertical-align:top;">:</td><td><div><table><tr><td><div>1</div></td></tr><tr><td><div>0</div></td></tr></table></div></td></tr><tr><td style="font-weight:bold;vertical-align:top;">wsgi_errors</td><td style="vertical-align:top;">:</td><td><div>&lt;open file &#x27;&lt;stderr&gt;&#x27;, mode &#x27;w&#x27; at 0x0041D0D0&gt;</div></td></tr><tr><td style="font-weight:bold;vertical-align:top;">wsgi_file_wrapper</td><td style="vertical-align:top;">:</td><td><div>&lt;class wsgiref.util.FileWrapper at 0x02CD2B58&gt;</div></td></tr><tr><td style="font-weight:bold;vertical-align:top;">wsgi_input</td><td style="vertical-align:top;">:</td><td><div>&lt;socket._fileobject object at 0x03F343F0&gt;</div></td></tr><tr><td style="font-weight:bold;vertical-align:top;">wsgi_multiprocess</td><td style="vertical-align:top;">:</td><td><div>False</div></td></tr><tr><td style="font-weight:bold;vertical-align:top;">wsgi_multithread</td><td style="vertical-align:top;">:</td><td><div>True</div></td></tr><tr><td style="font-weight:bold;vertical-align:top;">wsgi_run_once</td><td style="vertical-align:top;">:</td><td><div>False</div></td></tr><tr><td style="font-weight:bold;vertical-align:top;">wsgi_url_scheme</td><td style="vertical-align:top;">:</td><td><div>http</div></td></tr><tr><td style="font-weight:bold;vertical-align:top;">wsgi_version</td><td style="vertical-align:top;">:</td><td><div><table><tr><td><div>1</div></td></tr><tr><td><div>0</div></td></tr></table></div></td></tr></table></div></td></tr><tr><td style="font-weight:bold;vertical-align:top;">extension</td><td style="vertical-align:top;">:</td><td><div>html</div></td></tr><tr><td style="font-weight:bold;vertical-align:top;">folder</td><td style="vertical-align:top;">:</td><td><div>C:\\Users\\xsarah\\Desktop\\xborlandax\\University\\cs183\\web2py\\applications\\finalproject\\</div></td></tr><tr><td style="font-weight:bold;vertical-align:top;">function</td><td style="vertical-align:top;">:</td><td><div>get_games</div></td></tr><tr><td style="font-weight:bold;vertical-align:top;">global_settings</td><td style="vertical-align:top;">:</td><td><div><table><tr><td style="font-weight:bold;vertical-align:top;">app_folders</td><td style="vertical-align:top;">:</td><td><div>set([&#x27;C:\\\\Users\\\\xsarah\\\\Desktop\\\\xborlandax\\\\University\\\\cs183\\\\web2py\\\\applications\\\\finalproject\\\\&#x27;, &#x27;C:\\\\Users\\\\xsarah\\\\Desktop\\\\xborlandax\\\\University\\\\cs183\\\\web2py\\\\applications\\\\admin\\\\&#x27;, &#x27;C:\\\\Users\\\\xsarah\\\\Desktop\\\\xborlandax\\\\University\\\\cs183\\\\web2py\\\\applications\\\\welcome\\\\&#x27;])</div></td></tr><tr><td style="font-weight:bold;vertical-align:top;">applications_parent</td><td style="vertical-align:top;">:</td><td><div>C:\\Users\\xsarah\\Desktop\\xborlandax\\University\\cs183\\web2py</div></td></tr><tr><td style="font-weight:bold;vertical-align:top;">cmd_args</td><td style="vertical-align:top;">:</td><td><div><table></table></div></td></tr><tr><td style="font-weight:bold;vertical-align:top;">cmd_options</td><td style="vertical-align:top;">:</td><td><div>&lt;Values at 0x2d12fa8: {&#x27;verbose&#x27;: False, &#x27;ip&#x27;: &#x27;127.0.0.1&#x27;, &#x27;debuglevel&#x27;: 30, &#x27;with_scheduler&#x27;: False, &#x27;shutdown_timeout&#x27;: 5, &#x27;taskbar&#x27;: False, &#x27;with_coverage&#x27;: False, &#x27;pid_filename&#x27;: &#x27;httpserver.pid&#x27;, &#x27;maxthreads&#x27;: None, &#x27;softcron&#x27;: False, &#x27;server_name&#x27;: &#x27;SAB&#x27;, &#x27;bpython&#x27;: False, &#x27;nogui&#x27;: False, &#x27;port&#x27;: 8000, &#x27;print_errors&#x27;: False, &#x27;extcron&#x27;: False, &#x27;runcron&#x27;: False, &#x27;run_system_tests&#x27;: False, &#x27;test&#x27;: None, &#x27;folder&#x27;: &#x27;C:\\\\Users\\\\xsarah\\\\Desktop\\\\xborlandax\\\\University\\\\cs183\\\\web2py&#x27;, &#x27;config&#x27;: &#x27;&#x27;, &#x27;minthreads&#x27;: None, &#x27;shell&#x27;: None, &#x27;run&#x27;: &#x27;&#x27;, &#x27;log_filename&#x27;: &#x27;httpserver.log&#x27;, &#x27;profiler_dir&#x27;: None, &#x27;args&#x27;: [&#x27;&#x27;], &#x27;socket_timeout&#x27;: 5, &#x27;ssl_ca_certificate&#x27;: None, &#x27;scheduler&#x27;: None, &#x27;interfaces&#x27;: None, &#x27;ssl_private_key&#x27;: &#x27;&#x27;, &#x27;gae&#x27;: None, &#x27;password&#x27;: &#x27;******&#x27;, &#x27;request_queue_size&#x27;: 5, &#x27;ssl_certificate&#x27;: &#x27;&#x27;, &#x27;cronjob&#x27;: False, &#x27;numthreads&#x27;: None, &#x27;quiet&#x27;: False, &#x27;import_models&#x27;: False, &#x27;timeout&#x27;: 10, &#x27;plain&#x27;: False, &#x27;nobanner&#x27;: False}&gt;</div></td></tr><tr><td style="font-weight:bold;vertical-align:top;">db_sessions</td><td style="vertical-align:top;">:</td><td><div>set([&#x27;finalproject&#x27;])</div></td></tr><tr><td style="font-weight:bold;vertical-align:top;">debugging</td><td style="vertical-align:top;">:</td><td><div>False</div></td></tr><tr><td style="font-weight:bold;vertical-align:top;">gluon_parent</td><td style="vertical-align:top;">:</td><td><div>C:\\Users\\xsarah\\Desktop\\xborlandax\\University\\cs183\\web2py</div></td></tr><tr><td style="font-weight:bold;vertical-align:top;">is_jython</td><td style="vertical-align:top;">:</td><td><div>False</div></td></tr><tr><td style="font-weight:bold;vertical-align:top;">is_pypy</td><td style="vertical-align:top;">:</td><td><div>False</div></td></tr><tr><td style="font-weight:bold;vertical-align:top;">is_source</td><td style="vertical-align:top;">:</td><td><div>True</div></td></tr><tr><td style="font-weight:bold;vertical-align:top;">local_hosts</td><td style="vertical-align:top;">:</td><td><div><table><tr><td><div>192.168.1.27</div></td></tr><tr><td><div>SAB</div></td></tr><tr><td><div>2001:0:9d38:90d7:30e3:484:3f57:fee4</div></td></tr><tr><td><div>::ffff:127.0.0.1</div></td></tr><tr><td><div>::1</div></td></tr><tr><td><div>fe80::f907:4247:a6c1:59ac%8</div></td></tr><tr><td><div>fe80::30e3:484:3f57:fee4%5</div></td></tr><tr><td><div>fe80::bceb:fcc3:2a79:f927%3</div></td></tr><tr><td><div>127.0.0.1</div></td></tr><tr><td><div>192.168.56.1</div></td></tr></table></div></td></tr><tr><td style="font-weight:bold;vertical-align:top;">web2py_version</td><td style="vertical-align:top;">:</td><td><div>2.14.6-stable+timestamp.2016.05.10.00.21.47</div></td></tr></table></div></td></tr><tr><td style="font-weight:bold;vertical-align:top;">is_https</td><td style="vertical-align:top;">:</td><td><div>False</div></td></tr><tr><td style="font-weight:bold;vertical-align:top;">is_local</td><td style="vertical-align:top;">:</td><td><div>True</div></td></tr><tr><td style="font-weight:bold;vertical-align:top;">is_restful</td><td style="vertical-align:top;">:</td><td><div>False</div></td></tr><tr><td style="font-weight:bold;vertical-align:top;">is_scheduler</td><td style="vertical-align:top;">:</td><td><div>False</div></td></tr><tr><td style="font-weight:bold;vertical-align:top;">is_shell</td><td style="vertical-align:top;">:</td><td><div>False</div></td></tr><tr><td style="font-weight:bold;vertical-align:top;">now</td><td style="vertical-align:top;">:</td><td><div>datetime.datetime(2016, 11, 5, 0, 45, 59, 354000)</div></td></tr><tr><td style="font-weight:bold;vertical-align:top;">raw_args</td><td style="vertical-align:top;">:</td><td><div></div></td></tr><tr><td style="font-weight:bold;vertical-align:top;">raw_extension</td><td style="vertical-align:top;">:</td><td><div>None</div></td></tr><tr><td style="font-weight:bold;vertical-align:top;">url</td><td style="vertical-align:top;">:</td><td><div>/finalproject/gamedata/get_games</div></td></tr><tr><td style="font-weight:bold;vertical-align:top;">utcnow</td><td style="vertical-align:top;">:</td><td><div>datetime.datetime(2016, 11, 5, 7, 45, 59, 354000)</div></td></tr><tr><td style="font-weight:bold;vertical-align:top;">wsgi</td><td style="vertical-align:top;">:</td><td><div>&lt;gluon.main.LazyWSGI object at 0x03A110F0&gt;</div></td></tr></table></div>'
tRp58
sS'frames'
p59
(lp60
(dp61
S'file'
p62
S'C:\\Users\\xsarah\\Desktop\\xborlandax\\University\\cs183\\web2py\\gluon\\restricted.py'
p63
sS'dump'
p64
(dp65
S'environment'
p66
S"{'A': <class 'gluon.html.A'>, 'ANY_OF': <class 'gluon.validators.ANY_OF'>, 'ASSIGNJS': <function ASSIGNJS>, 'AppConfig': <function AppConfig>, 'Auth': <class 'gluon.tools.Auth'>, 'B': <class 'gluon.html.B'>, 'BEAUTIFY': <class 'gluon.html.BEAUTIFY'>, 'BODY': <class 'gluon.html.BODY'>, 'BR': <class 'gluon.html.BR'>, 'BUTTON': <class 'gluon.html.BUTTON'>, ...}"
p67
sS'ccode'
p68
S'<code object <module> at 03C8EE78, file "C:\\User...ns\\finalproject\\controllers/gamedata.py", line 4>'
p69
ssS'lnum'
p70
I227
sS'lines'
p71
(dp72
I224
S'            ccode = code'
p73
sI225
S'        else:'
p74
sI226
S'            ccode = compile2(code, layer)'
p75
sI227
S'        exec ccode in environment'
p76
sI228
S'    except HTTP:'
p77
sI229
S'        raise'
p78
sI230
S'    except RestrictedError:'
p79
sI231
S'        # do not encapsulate (obfuscate) the original RestrictedError'
p80
sI222
S'    try:'
p81
sI223
S'        if isinstance(code, types.CodeType):'
p82
ssS'call'
p83
S"(code='# pulls data about games and puts them into the ...\\n\\n\\n\\n\\n\\nresponse._vars=response._caller(get_games)\\n', environment={'A': <class 'gluon.html.A'>, 'ANY_OF': <class 'gluon.validators.ANY_OF'>, 'ASSIGNJS': <function ASSIGNJS>, 'AppConfig': <function AppConfig>, 'Auth': <class 'gluon.tools.Auth'>, 'B': <class 'gluon.html.B'>, 'BEAUTIFY': <class 'gluon.html.BEAUTIFY'>, 'BODY': <class 'gluon.html.BODY'>, 'BR': <class 'gluon.html.BR'>, 'BUTTON': <class 'gluon.html.BUTTON'>, ...}, layer=r'C:\\Users\\xsarah\\Desktop\\xborlandax\\University\\cs...applications\\finalproject\\controllers/gamedata.py')"
p84
sS'func'
p85
S'restricted'
p86
sa(dp87
g62
S'C:\\Users\\xsarah\\Desktop\\xborlandax\\University\\cs183\\web2py\\applications\\finalproject\\controllers\\gamedata.py'
p88
sg64
(dp89
sg70
I101
sg71
(dp90
I96
S''
sI97
S''
sI98
S''
sI99
S''
sI90
S'        }'
p91
sI91
S'    )'
p92
sI92
S'    return response'
p93
sI93
S''
sI94
S'#testing'
p94
sI95
S'#get_games(11,2016)'
p95
ssg83
S'()'
p96
sg85
S'<module>'
p97
sa(dp98
g62
S'C:\\Users\\xsarah\\Desktop\\xborlandax\\University\\cs183\\web2py\\gluon\\globals.py'
p99
sg64
(dp100
S'self'
p101
S'undefined'
p102
sS'f'
S'<function get_games>'
p103
ssg70
I417
sg71
(dp104
I416
S'        self._vars = None'
p105
sI417
S'        self._caller = lambda f: f()'
p106
sI418
S'        self._view_environment = None'
p107
sI419
S'        self._custom_commit = None'
p108
sI420
S'        self._custom_rollback = None'
p109
sI421
S"        self.generic_patterns = ['*']"
p110
sI412
S"        self.flash = ''            # used by the default view layout"
p111
sI413
S'        self.meta = Storage()      # used by web2py_ajax.html'
p112
sI414
S'        self.menu = []             # used by the default view layout'
p113
sI415
S'        self.files = []            # used by web2py_ajax.html'
p114
ssg83
S'(f=<function get_games>)'
p115
sg85
S'<lambda>'
p116
sa(dp117
g62
S'C:\\Users\\xsarah\\Desktop\\xborlandax\\University\\cs183\\web2py\\applications\\finalproject\\controllers\\gamedata.py'
p118
sg64
(dp119
S'gameRelease'
p120
g102
sS'releaseData'
p121
S"{u'category': 0, u'date': 1478217600000L, u'platform': 48, u'region': 8}"
p122
ssg70
I66
sg71
(dp123
I64
S"                for releaseData in gameData['release_dates']:"
p124
sI65
S"                    s = int(releaseData['date'])"
p125
sI66
S"                    realDate = datetime.datetime.fromtimestamp(s).strftime('%Y-%m-%d %H:%M:%S.%f')"
p126
sI67
S'                    gameRelease = dict('
p127
sI68
S'                        date = realDate,'
p128
sI69
S'                        #get the platform name'
p129
sI70
S"                        platform = PLATFORMS[str(releaseData['platform'])],"
p130
sI61
S"                #the game's release date is divided up by information on"
p131
sI62
S'                #region, platform and date. Region & Platform is added to global_variables'
p132
sI63
S'                #See https://market.mashape.com/igdbcom/internet-game-database/overview'
p133
ssg83
S'()'
p134
sg85
S'get_games'
p135
sasS'pyver'
p136
S'Python 2.7.12: C:\\Python27\\python.exe (prefix: C:\\Python27)'
p137
sS'session'
p138
g57
(S's\x1a\x00\x00\x00<div><table></table></div>'
tRp139
sS'etype'
p140
S"<type 'exceptions.ValueError'>"
p141
sS'date'
p142
S'Sat Nov 05 00:46:01 2016'
p143
sS'response'
p144
g57
(S'sY5\x00\x00<div><table><tr><td style="font-weight:bold;vertical-align:top;">body</td><td style="vertical-align:top;">:</td><td><div>&lt;cStringIO.StringO object at 0x0432F820&gt;</div></td></tr><tr><td style="font-weight:bold;vertical-align:top;">cookies</td><td style="vertical-align:top;">:</td><td><div><table><tr><td style="font-weight:bold;vertical-align:top;">session_id_finalproject</td><td style="vertical-align:top;">:</td><td><div>1:a4eeec94-110b-417f-82a0-ae852bd0f148<table><tr><td style="font-weight:bold;vertical-align:top;">comment</td><td style="vertical-align:top;">:</td><td><div></div></td></tr><tr><td style="font-weight:bold;vertical-align:top;">domain</td><td style="vertical-align:top;">:</td><td><div></div></td></tr><tr><td style="font-weight:bold;vertical-align:top;">expires</td><td style="vertical-align:top;">:</td><td><div></div></td></tr><tr><td style="font-weight:bold;vertical-align:top;">httponly</td><td style="vertical-align:top;">:</td><td><div></div></td></tr><tr><td style="font-weight:bold;vertical-align:top;">max-age</td><td style="vertical-align:top;">:</td><td><div></div></td></tr><tr><td style="font-weight:bold;vertical-align:top;">path</td><td style="vertical-align:top;">:</td><td><div>/</div></td></tr><tr><td style="font-weight:bold;vertical-align:top;">secure</td><td style="vertical-align:top;">:</td><td><div></div></td></tr><tr><td style="font-weight:bold;vertical-align:top;">version</td><td style="vertical-align:top;">:</td><td><div></div></td></tr></table></div></td></tr></table></div></td></tr><tr><td style="font-weight:bold;vertical-align:top;">delimiters</td><td style="vertical-align:top;">:</td><td><div><table><tr><td><div>{{</div></td></tr><tr><td><div>}}</div></td></tr></table></div></td></tr><tr><td style="font-weight:bold;vertical-align:top;">files</td><td style="vertical-align:top;">:</td><td><div><table></table></div></td></tr><tr><td style="font-weight:bold;vertical-align:top;">flash</td><td style="vertical-align:top;">:</td><td><div></div></td></tr><tr><td style="font-weight:bold;vertical-align:top;">form_label_separator</td><td style="vertical-align:top;">:</td><td><div></div></td></tr><tr><td style="font-weight:bold;vertical-align:top;">formstyle</td><td style="vertical-align:top;">:</td><td><div>bootstrap3_inline</div></td></tr><tr><td style="font-weight:bold;vertical-align:top;">generic_patterns</td><td style="vertical-align:top;">:</td><td><div><table><tr><td><div>*</div></td></tr></table></div></td></tr><tr><td style="font-weight:bold;vertical-align:top;">google_analytics_id</td><td style="vertical-align:top;">:</td><td><div>None</div></td></tr><tr><td style="font-weight:bold;vertical-align:top;">headers</td><td style="vertical-align:top;">:</td><td><div><table><tr><td style="font-weight:bold;vertical-align:top;">X-Powered-By</td><td style="vertical-align:top;">:</td><td><div>web2py</div></td></tr></table></div></td></tr><tr><td style="font-weight:bold;vertical-align:top;">logo</td><td style="vertical-align:top;">:</td><td><div><a class="navbar-brand" href="http://www.web2py.com/" id="web2py-logo"><b>web<span>2</span>py</b>&trade;&nbsp;</a></div></td></tr><tr><td style="font-weight:bold;vertical-align:top;">menu</td><td style="vertical-align:top;">:</td><td><div><table><tr><td><div><table><tr><td><div>Home</div></td></tr><tr><td><div>False</div></td></tr><tr><td><div>/finalproject/default/index</div></td></tr><tr><td><div><table></table></div></td></tr></table></div></td></tr><tr><td><div><table><tr><td><div>My Sites</div></td></tr><tr><td><div>False</div></td></tr><tr><td><div>/admin/default/site</div></td></tr></table></div></td></tr><tr><td><div><table><tr><td><div>This App</div></td></tr><tr><td><div>False</div></td></tr><tr><td><div>#</div></td></tr><tr><td><div><table><tr><td><div><table><tr><td><div>Design</div></td></tr><tr><td><div>False</div></td></tr><tr><td><div>/admin/default/design/finalproject</div></td></tr></table></div></td></tr><tr><td><div><li class="divider"></li></div></td></tr><tr><td><div><table><tr><td><div>Controller</div></td></tr><tr><td><div>False</div></td></tr><tr><td><div>/admin/default/edit/finalproject/controllers/gamedata.py</div></td></tr></table></div></td></tr><tr><td><div><table><tr><td><div>View</div></td></tr><tr><td><div>False</div></td></tr><tr><td><div>/admin/default/edit/finalproject/views/gamedata/get_games.html</div></td></tr></table></div></td></tr><tr><td><div><table><tr><td><div>DB Model</div></td></tr><tr><td><div>False</div></td></tr><tr><td><div>/admin/default/edit/finalproject/models/db.py</div></td></tr></table></div></td></tr><tr><td><div><table><tr><td><div>Menu Model</div></td></tr><tr><td><div>False</div></td></tr><tr><td><div>/admin/default/edit/finalproject/models/menu.py</div></td></tr></table></div></td></tr><tr><td><div><table><tr><td><div>Config.ini</div></td></tr><tr><td><div>False</div></td></tr><tr><td><div>/admin/default/edit/finalproject/private/appconfig.ini</div></td></tr></table></div></td></tr><tr><td><div><table><tr><td><div>Layout</div></td></tr><tr><td><div>False</div></td></tr><tr><td><div>/admin/default/edit/finalproject/views/layout.html</div></td></tr></table></div></td></tr><tr><td><div><table><tr><td><div>Stylesheet</div></td></tr><tr><td><div>False</div></td></tr><tr><td><div>/admin/default/edit/finalproject/static/css/web2py-bootstrap3.css</div></td></tr></table></div></td></tr><tr><td><div><table><tr><td><div>Database</div></td></tr><tr><td><div>False</div></td></tr><tr><td><div>/finalproject/appadmin/index</div></td></tr></table></div></td></tr><tr><td><div><table><tr><td><div>Errors</div></td></tr><tr><td><div>False</div></td></tr><tr><td><div>/admin/default/errors/finalproject</div></td></tr></table></div></td></tr><tr><td><div><table><tr><td><div>About</div></td></tr><tr><td><div>False</div></td></tr><tr><td><div>/admin/default/about/finalproject</div></td></tr></table></div></td></tr></table></div></td></tr></table></div></td></tr><tr><td><div><table><tr><td><div>Documentation</div></td></tr><tr><td><div>False</div></td></tr><tr><td><div>#</div></td></tr><tr><td><div><table><tr><td><div><table><tr><td><div>Online book</div></td></tr><tr><td><div>False</div></td></tr><tr><td><div>http://www.web2py.com/book</div></td></tr></table></div></td></tr><tr><td><div><li class="divider"></li></div></td></tr><tr><td><div><table><tr><td><div>Preface</div></td></tr><tr><td><div>False</div></td></tr><tr><td><div>http://www.web2py.com/book/default/chapter/00</div></td></tr></table></div></td></tr><tr><td><div><table><tr><td><div>Introduction</div></td></tr><tr><td><div>False</div></td></tr><tr><td><div>http://www.web2py.com/book/default/chapter/01</div></td></tr></table></div></td></tr><tr><td><div><table><tr><td><div>Python</div></td></tr><tr><td><div>False</div></td></tr><tr><td><div>http://www.web2py.com/book/default/chapter/02</div></td></tr></table></div></td></tr><tr><td><div><table><tr><td><div>Overview</div></td></tr><tr><td><div>False</div></td></tr><tr><td><div>http://www.web2py.com/book/default/chapter/03</div></td></tr></table></div></td></tr><tr><td><div><table><tr><td><div>The Core</div></td></tr><tr><td><div>False</div></td></tr><tr><td><div>http://www.web2py.com/book/default/chapter/04</div></td></tr></table></div></td></tr><tr><td><div><table><tr><td><div>The Views</div></td></tr><tr><td><div>False</div></td></tr><tr><td><div>http://www.web2py.com/book/default/chapter/05</div></td></tr></table></div></td></tr><tr><td><div><table><tr><td><div>Database</div></td></tr><tr><td><div>False</div></td></tr><tr><td><div>http://www.web2py.com/book/default/chapter/06</div></td></tr></table></div></td></tr><tr><td><div><table><tr><td><div>Forms and Validators</div></td></tr><tr><td><div>False</div></td></tr><tr><td><div>http://www.web2py.com/book/default/chapter/07</div></td></tr></table></div></td></tr><tr><td><div><table><tr><td><div>Email and SMS</div></td></tr><tr><td><div>False</div></td></tr><tr><td><div>http://www.web2py.com/book/default/chapter/08</div></td></tr></table></div></td></tr><tr><td><div><table><tr><td><div>Access Control</div></td></tr><tr><td><div>False</div></td></tr><tr><td><div>http://www.web2py.com/book/default/chapter/09</div></td></tr></table></div></td></tr><tr><td><div><table><tr><td><div>Services</div></td></tr><tr><td><div>False</div></td></tr><tr><td><div>http://www.web2py.com/book/default/chapter/10</div></td></tr></table></div></td></tr><tr><td><div><table><tr><td><div>Ajax Recipes</div></td></tr><tr><td><div>False</div></td></tr><tr><td><div>http://www.web2py.com/book/default/chapter/11</div></td></tr></table></div></td></tr><tr><td><div><table><tr><td><div>Components and Plugins</div></td></tr><tr><td><div>False</div></td></tr><tr><td><div>http://www.web2py.com/book/default/chapter/12</div></td></tr></table></div></td></tr><tr><td><div><table><tr><td><div>Deployment Recipes</div></td></tr><tr><td><div>False</div></td></tr><tr><td><div>http://www.web2py.com/book/default/chapter/13</div></td></tr></table></div></td></tr><tr><td><div><table><tr><td><div>Other Recipes</div></td></tr><tr><td><div>False</div></td></tr><tr><td><div>http://www.web2py.com/book/default/chapter/14</div></td></tr></table></div></td></tr><tr><td><div><table><tr><td><div>Helping web2py</div></td></tr><tr><td><div>False</div></td></tr><tr><td><div>http://www.web2py.com/book/default/chapter/15</div></td></tr></table></div></td></tr><tr><td><div><table><tr><td><div>Buy web2py\'s book</div></td></tr><tr><td><div>False</div></td></tr><tr><td><div>http://stores.lulu.com/web2py</div></td></tr></table></div></td></tr></table></div></td></tr></table></div></td></tr></table></div></td></tr><tr><td style="font-weight:bold;vertical-align:top;">meta</td><td style="vertical-align:top;">:</td><td><div><table><tr><td style="font-weight:bold;vertical-align:top;">author</td><td style="vertical-align:top;">:</td><td><div>Your Name &lt;you@example.com&gt;</div></td></tr><tr><td style="font-weight:bold;vertical-align:top;">description</td><td style="vertical-align:top;">:</td><td><div>a cool new app</div></td></tr><tr><td style="font-weight:bold;vertical-align:top;">generator</td><td style="vertical-align:top;">:</td><td><div>Web2py Web Framework</div></td></tr><tr><td style="font-weight:bold;vertical-align:top;">keywords</td><td style="vertical-align:top;">:</td><td><div><table><tr><td><div>web2py</div></td></tr><tr><td><div>python</div></td></tr><tr><td><div>framework</div></td></tr></table></div></td></tr></table></div></td></tr><tr><td style="font-weight:bold;vertical-align:top;">models_to_run</td><td style="vertical-align:top;">:</td><td><div><table><tr><td><div>^\\w+\\.py$</div></td></tr><tr><td><div>^gamedata/\\w+\\.py$</div></td></tr><tr><td><div>^gamedata/get_games/\\w+\\.py$</div></td></tr></table></div></td></tr><tr><td style="font-weight:bold;vertical-align:top;">postprocessing</td><td style="vertical-align:top;">:</td><td><div><table></table></div></td></tr><tr><td style="font-weight:bold;vertical-align:top;">session_client</td><td style="vertical-align:top;">:</td><td><div>127.0.0.1</div></td></tr><tr><td style="font-weight:bold;vertical-align:top;">session_cookie_compression_level</td><td style="vertical-align:top;">:</td><td><div>None</div></td></tr><tr><td style="font-weight:bold;vertical-align:top;">session_cookie_expires</td><td style="vertical-align:top;">:</td><td><div>None</div></td></tr><tr><td style="font-weight:bold;vertical-align:top;">session_data_name</td><td style="vertical-align:top;">:</td><td><div>session_data_finalproject</div></td></tr><tr><td style="font-weight:bold;vertical-align:top;">session_db_record_id</td><td style="vertical-align:top;">:</td><td><div>1L</div></td></tr><tr><td style="font-weight:bold;vertical-align:top;">session_db_table</td><td style="vertical-align:top;">:</td><td><div>&lt;Table web2py_session_finalproject (id, locked, client_ip, created_datetime, modified_datetime, unique_key, session_data)&gt;</div></td></tr><tr><td style="font-weight:bold;vertical-align:top;">session_db_unique_key</td><td style="vertical-align:top;">:</td><td><div>a4eeec94-110b-417f-82a0-ae852bd0f148</div></td></tr><tr><td style="font-weight:bold;vertical-align:top;">session_hash</td><td style="vertical-align:top;">:</td><td><div>c0762cbf4baf7f9af97c051e7fcb8083</div></td></tr><tr><td style="font-weight:bold;vertical-align:top;">session_id</td><td style="vertical-align:top;">:</td><td><div>1:a4eeec94-110b-417f-82a0-ae852bd0f148</div></td></tr><tr><td style="font-weight:bold;vertical-align:top;">session_id_name</td><td style="vertical-align:top;">:</td><td><div>session_id_finalproject</div></td></tr><tr><td style="font-weight:bold;vertical-align:top;">session_masterapp</td><td style="vertical-align:top;">:</td><td><div>finalproject</div></td></tr><tr><td style="font-weight:bold;vertical-align:top;">session_new</td><td style="vertical-align:top;">:</td><td><div>False</div></td></tr><tr><td style="font-weight:bold;vertical-align:top;">session_storage_type</td><td style="vertical-align:top;">:</td><td><div>db</div></td></tr><tr><td style="font-weight:bold;vertical-align:top;">status</td><td style="vertical-align:top;">:</td><td><div>200</div></td></tr><tr><td style="font-weight:bold;vertical-align:top;">subtitle</td><td style="vertical-align:top;">:</td><td><div></div></td></tr><tr><td style="font-weight:bold;vertical-align:top;">title</td><td style="vertical-align:top;">:</td><td><div>Finalproject</div></td></tr><tr><td style="font-weight:bold;vertical-align:top;">view</td><td style="vertical-align:top;">:</td><td><div>gamedata/get_games.html</div></td></tr></table></div>'
tRp145
sS'locals'
p146
(dp147
S'week'
p148
S'<Response [200]>'
p149
sS'gameMonth'
p150
S'[<Response [200]>, <Response [200]>, <Response [200]>]'
p151
sS'currentTime'
p152
S'1478331961'
p153
sS'resWeekB'
p154
S'<Response [200]>'
p155
sS'resWeekC'
p156
S'<Response [200]>'
p157
sS'nextMonth'
p158
S"'12'"
p159
sS'resWeekA'
p160
S'<Response [200]>'
p161
sS'game_list'
p162
S'[]'
p163
sS's'
S'1478217600000L'
p164
sS'gameData'
p165
S"{u'id': 18968, u'name': u'Call of Duty: Infinite Warfare', u'release_dates': [{u'category': 0, u'date': 1478217600000L, u'platform': 48, u'region': 8}, {u'category': 0, u'date': 1478217600000L, u'platform': 49, u'region': 8}, {u'category': 0, u'date': 1478217600000L, u'platform': 6, u'region': 8}]}"
p166
sS'month'
p167
S"'11'"
p168
sS'nextYear'
p169
S"'2016'"
p170
sS'game'
p171
S"{'id': 18968, 'name': 'Call of Duty: Infinite Warfare', 'release': []}"
p172
sS'releaseData'
p173
S"{u'category': 0, u'date': 1478217600000L, u'platform': 48, u'region': 8}"
p174
sS'weekResponse'
p175
S'[{u\'id\': 18968, u\'name\': u\'Call of Duty: Infinite Warfare\', u\'release_dates\': [{u\'category\': 0, u\'date\': 1478217600000L, u\'platform\': 48, u\'region\': 8}, {u\'category\': 0, u\'date\': 1478217600000L, u\'platform\': 49, u\'region\': 8}, {u\'category\': 0, u\'date\': 1478217600000L, u\'platform\': 6, u\'region\': 8}]}, {u\'id\': 18727, u\'name\': u\'Transport Fever\', u\'release_dates\': [{u\'category\': 0, u\'date\': 1478563200000L, u\'platform\': 14}, {u\'category\': 0, u\'date\': 1478563200000L, u\'platform\': 3}, {u\'category\': 0, u\'date\': 1478563200000L, u\'platform\': 6}]}, {u\'id\': 11180, u\'name\': u\'Robinson: The Journey\', u\'release_dates\': [{u\'category\': 0, u\'date\': 1478649600000L, u\'platform\': 48, u\'region\': 1}, {u\'category\': 0, u\'date\': 1478563200000L, u\'platform\': 48, u\'region\': 2}, {u\'category\': 2, u\'date\': 1514678400000L, u\'platform\': 6}]}, {u\'id\': 14765, u\'name\': u\'Eagle Flight\', u\'release_dates\': [{u\'category\': 0, u\'date\': 1478563200000L, u\'platform\': 48}, {u\'category\': 0, u\'date\': 1476748800000L, u\'platform\': 6}]}, {u\'id\': 19449, u\'name\': u\'Dragon Ball: Xenoverse 2\', u\'release_dates\': [{u\'category\': 0, u\'date\': 1477353600000L, u\'platform\': 49, u\'region\': 2}, {u\'category\': 0, u\'date\': 1477612800000L, u\'platform\': 49, u\'region\': 1}, {u\'category\': 0, u\'date\': 1477612800000L, u\'platform\': 6, u\'region\': 8}, {u\'category\': 0, u\'date\': 1478044800000L, u\'platform\': 48, u\'region\': 5}, {u\'category\': 0, u\'date\': 1477353600000L, u\'platform\': 48, u\'region\': 2}, {u\'category\': 0, u\'date\': 1477353600000L, u\'platform\': 48, u\'region\': 1}]}, {u\'id\': 19293, u\'name\': u\'Motorsport Manager\', u\'release_dates\': [{u\'category\': 0, u\'date\': 1478649600000L, u\'platform\': 6}, {u\'category\': 0, u\'date\': 1478649600000L, u\'platform\': 14}, {u\'category\': 0, u\'date\': 1478649600000L, u\'platform\': 3}, {u\'category\': 0, u\'date\': 1478649600000L, u\'platform\': 92}]}, {u\'id\': 21620, u\'name\': u\'Tablemen\', u\'release_dates\': [{u\'category\': 0, u\'date\': 1478217600000L, u\'platform\': 6, u\'region\': 8}]}, {u\'id\': 23164, u\'name\': u"Curiosity \\u2013 What\'s Inside the Cube?", u\'release_dates\': [{u\'category\': 0, u\'date\': 1478390400000L, u\'platform\': 34}, {u\'category\': 0, u\'date\': 1478390400000L, u\'platform\': 39}]}, {u\'id\': 19799, u\'name\': u\'Fate/Extella\', u\'release_dates\': [{u\'category\': 6, u\'date\': 1483142400000L, u\'platform\': 48, u\'region\': 2}, {u\'category\': 6, u\'date\': 1483142400000L, u\'platform\': 46, u\'region\': 2}, {u\'category\': 0, u\'date\': 1478736000000L, u\'platform\': 48, u\'region\': 5}, {u\'category\': 0, u\'date\': 1478736000000L, u\'platform\': 46, u\'region\': 5}]}, {u\'id\': 24481, u\'name\': u\'Football Manager 2017\', u\'release_dates\': [{u\'category\': 0, u\'date\': 1478217600000L, u\'platform\': 6}, {u\'category\': 0, u\'date\': 1478217600000L, u\'platform\': 14}, {u\'category\': 0, u\'date\': 1478217600000L, u\'platform\': 3}, {u\'category\': 0, u\'date\': 1478217600000L, u\'platform\': 92}]}, {u\'id\': 20927, u\'name\': u\'911 Operator\', u\'release_dates\': [{u\'category\': 0, u\'date\': 1478649600000L, u\'platform\': 6, u\'region\': 8}]}, {u\'id\': 20901, u\'name\': u\'Xbox Live Arcade Game Pack\', u\'release_dates\': [{u\'category\': 0, u\'date\': 1478131200000L, u\'platform\': 12}]}, {u\'id\': 22749, u\'name\': u\'The Karters\', u\'release_dates\': [{u\'category\': 0, u\'date\': 1478563200000L, u\'platform\': 6, u\'region\': 8}]}]'
p176
sS'year'
p177
S"'2016'"
p178
sssS'traceback'
p179
S'Traceback (most recent call last):\n  File "C:\\Users\\xsarah\\Desktop\\xborlandax\\University\\cs183\\web2py\\gluon\\restricted.py", line 227, in restricted\n    exec ccode in environment\n  File "C:\\Users\\xsarah\\Desktop\\xborlandax\\University\\cs183\\web2py\\applications\\finalproject\\controllers/gamedata.py", line 101, in <module>\n  File "C:\\Users\\xsarah\\Desktop\\xborlandax\\University\\cs183\\web2py\\gluon\\globals.py", line 417, in <lambda>\n    self._caller = lambda f: f()\n  File "C:\\Users\\xsarah\\Desktop\\xborlandax\\University\\cs183\\web2py\\applications\\finalproject\\controllers/gamedata.py", line 66, in get_games\n    realDate = datetime.datetime.fromtimestamp(s).strftime(\'%Y-%m-%d %H:%M:%S.%f\')\nValueError: timestamp out of range for platform localtime()/gmtime() function\n'
p180
s.