(dp1
S'output'
p2
S"<type 'exceptions.IndentationError'> unindent does not match any outer indentation level (controllers/gamedata.py, line 242)"
p3
sS'layer'
p4
S'C:\\Users\\xsarah\\Desktop\\xborlandax\\University\\cs183\\web2py\\applications\\GameDayCalendar\\controllers/gamedata.py'
p5
sS'code'
p6
S'# pulls data about games and puts them into the database.\n\n#Key for Game database : https://market.mashape.com/igdbcom/internet-game-database\nIGBDkey = "kUe3uZXJcSmshT3CXf5O16Z7DPUjp1n5R0NjsnMr9K0qItyY2Q"\nIBGDurl= "https://igdbcom-internet-game-database-v1.p.mashape.com/"\n\n#URL for images\n#tesing: https://res.cloudinary.com/igdb/image/upload/t_cover_big/rm8orl3sh5bf7fe1oqvz.jpg\nIBGDimages = "https://res.cloudinary.com/igdb/image/upload/t_"\nSIZES ={\n\'thumb\': \'thumb\',\n\'small\': \'cover_big\',\n\'med\': \'screenshot_med\',\n\'large\': \'screenshot_huge\'\n}\n\n#all videos are from youtube\nIBGDvideo = "https://www.youtube.com/embed/"\n\nimport requests\nimport time, datetime\n\n#GLOBAL VARIABLES DON\'T TOUCH#\nMONTHS = {\'01\' : "January",\'02\' : "February",\'03\' : "March",\'04\' : "April",\'06\' : "May",\'07\' : "June",\'08\' : "July",\'09\' : "August",\'10\' : "September",\'11\' : "November",\'12\' : "December",\n}\nPLATFORMS ={\n"132" : "Amazon Fire TV", "131" : "Nintendo PlayStation", "130" : "NX", "129" : "Texas Instruments TI-99", "128" : "PC Engine SuperGrafx", "127" : "Fairchild Channel F", "126" : "TRS-80", "125" : "PC-8801", "124" : "SwanCrystal", "123" : "WonderSwan Color", "122" : "Nuon", "121" : "Sharp X68000", "120" : "Neo Geo Pocket Color", "119" : "Neo Geo Pocket", "118" : "FM Towns", "117" : "Philips CD-i", "116" : "Acorn Archimedes", "115" : "Apple IIGS", "114" : "Amiga CD32", "113" : "OnLive Game System", "112" : "Microcomputer", "111" : "Imlac PDS-1", "110" : "PLATO", "109" : "CDC Cyber 70", "108" : "PDP-11", "107" : "Call-A-Computer time-shared mainframe computer system", "106" : "SDS Sigma 7", "105" : "HP 3000", "104" : "HP 2100", "103" : "PDP-7", "102" : "EDSAC", "101" : "Ferranti Nimrod Computer", "100" : "Analogue electronics", "99" : "Family Computer", "98" : "DEC GT40", "97" : "PDP-8", "96" : "PDP-10", "95" : "PDP-1", "94" : "Commodore Plus/4", "93" : "Commodore 16", "92" : "SteamOS", "91" : "Bally Astrocade", "90" : "Commodore PET", "89" : "Microvision", "88" : "Odyssey", "87" : "Virtual Boy", "86" : "TurboGrafx-16/PC Engine", "85" : "Donner Model 30", "84" : "SG-1000", "82" : "Web browser", "80" : "Neo Geo AES", "79" : "Neo Geo MVS", "78" : "Sega CD", "77" : "Sharp X1", "75" : "Apple II", "74" : "Windows Phone", "73" : "BlackBerry OS", "72" : "Ouya", "71" : "Commodore VIC-20", "70" : "Vectrex", "69" : "BBC Microcomputer System", "68" : "ColecoVision", "67" : "Intellivision", "66" : "Atari 5200", "65" : "Atari 8-bit", "64" : "Sega Master System", "63" : "Atari ST/STE", "62" : "Atari Jaguar", "61" : "Atari Lynx", "60" : "Atari 7800", "59" : "Atari 2600", "58" : "Super Famicom", "57" : "WonderSwan", "56" : "WiiWare", "55" : "Mobile", "53" : "MSX2", "52" : "Arcade", "51" : "Family Computer Disk System", "50" : "3DO Interactive Multiplayer", "49" : "Xbox One", "48" : "PlayStation 4", "47" : "Virtual Console (Nintendo)", "46" : "PlayStation Vita", "45" : "PlayStation Network", "44" : "Tapwave Zodiac", "42" : "N-Gage", "41" : "Wii U", "39" : "iOS", "38" : "PlayStation Portable", "37" : "Nintendo 3DS", "36" : "Xbox Live Arcade", "35" : "Sega Game Gear", "34" : "Android", "33" : "Game Boy", "32" : "Sega Saturn", "30" : "Sega 32X", "29" : "Sega Mega Drive/Genesis", "27" : "MSX", "26" : "ZX Spectrum", "25" : "Amstrad CPC", "24" : "Game Boy Advance", "23" : "Dreamcast", "22" : "Game Boy Color", "21" : "Nintendo GameCube", "20" : "Nintendo DS", "19" : "Super Nintendo Entertainment System (SNES)", "18" : "Nintendo Entertainment System (NES)", "16" : "Amiga", "15" : "Commodore C64/128", "14" : "Mac", "13" : "PC DOS", "12" : "Xbox 360", "11" : "Xbox", "9" : "PlayStation 3", "8" : "PlayStation 2", "7" : "PlayStation", "6" : "PC (Microsoft Windows)", "5" : "Wii", "4" : "Nintendo 64", "3" : "Linux",    \n}\nREGIONS = {\n"8":"World Wide", "1":"Europe","2":"North America", "3":"Australia", "4":"New Zealand","5":"Japan","6":"China","7":"Asia"\n}\n\nTHEMES = {"1" : "Action", "17" : "Fantasy", "18" : "Science Fiction", "19" : "Horror", "20" : "Thriller", "21" : "Survival", "22" : "Historical", "23" : "Stealth", "27" : "Comedy", "28" : "Business", "31" : "Drama", "32" : "Non-fiction", "33" : "Sandbox", "34" : "Educational", "35" : "Kids", "38" : "Open World", "39" : "Warfare", "40" : "Party", "41" : "Explore", "42" : "Erotic", "43" : "Mystery"\n}\n\nGENRES = {"2" : "Point-and-click", "4" : "Fighting", "5" : "Shooter", "7" : "Music", "8" : "Platform", "9" : "Puzzle", "10" : "Racing", "11" : "Real Time Strategy (RTS)", "12" : "Role-playing (RPG)", "13" : "Simulator", "14" : "Sport", "15" : "Strategy", "16" : "Turn-based strategy (TBS)", "24" : "Tactical", "25" : "Hack and Slash/Beat \'em up", "26" : "Quiz/Trivia", "30" : "Pinball", "31" : "Adventure", "32" : "Indie", "33" : "Arcade", }\nGAMEMODES ={\n"1":"Single Player",\n"2":"Multiplayer",\n"3":"Co-operative",\n"4":"Split Screen",\n"5":"MMO",\n}\n#Grabs the games that come out that month and year\n#Month is a value from 01 to 12 (MUST INCLUDE THE 0 for single digits)\n#Year is any valid year value\n#@cache(request.env.path_info,time_expire=30,cache_model=cache.disk)\ndef get_games():\n    month = int(request.vars.month)\n    year = int(request.vars.year)\n\n    #handles Dec-Jan case where\n    #December overlaps with January\n    nextMonth=month+1\n    nextYear = year\n    if (month==12):\n        nextMonth = "01"\n        nextYear = year+1\n    month = str(month)\n    year = str(year)\n    nextMonth = str(nextMonth)\n    nextYear = str(nextYear)\n    \n    game_list=[]\n    \n    #Because we are only allowed to pull 50 objects per request, I split up\n    #the month into thirds to cover all the possible days of the month for new\n    #releases.\n    resWeekA = get_gamesHelper(year+"-"+month+"-01",year+"-"+month+"-10")\n    resWeekB = get_gamesHelper(year+"-"+month+"-11",year+"-"+month+"-20")\n    resWeekC = get_gamesHelper(year+"-"+month+"-21",nextYear+"-"+nextMonth+"-01")\n    #put all the weeks into a list for easy access\n    gameMonth = [resWeekA,resWeekB,resWeekC]\n    \n    #only grab the release days that lay between the month,\n    #this will allow us to compare the pulls\n    \n    timeStart = year+"-"+month+"-01"\n    timeFinish = nextYear+"-"+nextMonth+"-01"\n    pattern = \'%Y-%m-%d\'\n    epochStart =  int(time.mktime(time.strptime(timeStart, pattern)))\n    epochFinish =  int(time.mktime(time.strptime(timeFinish, pattern)))\n    \n    requestStatus = "OK"\n    \n    #TODO: Throwing an error for a bad status code\n    if((resWeekA.status_code==200) and (resWeekB.status_code==200) and (resWeekC.status_code==200)):\n        #go through each week...\n        for week in gameMonth:\n            weekResponse = week.json()\n            for gameData in weekResponse:\n                #get the game\'s name and id\n                game = dict(\n                    name = gameData[\'name\'].encode("utf-8"),\n                    id = gameData[\'id\'],\n                    release = []\n                )\n                #the game\'s release date is divided up by information on\n                #region, platform and date. Region & Platform is added to global_variables\n                #See https://market.mashape.com/igdbcom/internet-game-database/overview\n                for releaseData in gameData[\'release_dates\']:\n                    s = int(releaseData[\'date\'])/1000.0\n                    realDate = datetime.datetime.fromtimestamp(s).strftime(\'%d-%m-%Y.%f\')\n                    #Only grab the relevant release dates\n                    if (s>=epochStart) and (s<epochFinish):\n                        gameRelease = dict(\n                            date = realDate,\n                            #get the platform name\n                            platform = PLATFORMS[str(releaseData[\'platform\'])],\n                            region = "World Wide"\n                        )\n                        if \'region\' in releaseData:\n                            gameRelease[\'region\']= REGIONS[str(releaseData[\'region\'])]\n                        game[\'release\'].append(gameRelease)\n                game_list.append(game)\n    else:\n        StatusRequest = "ERROR"\n        \n   # for g in game_list:\n    #    print g\n    \n    return response.json(dict(\n        game_list=game_list,\n    ))\n\n#helper for get_games - pulls all the games that are going to be released between two dates\ndef get_gamesHelper(date1,date2):\n    #print IBGDurl+"?fields=name,release_dates&limit=50&filter[release_dates.date][gt]="+date1+"&filter[release_dates.date][lte]="+date2\n    response = requests.get(IBGDurl+"games/?fields=name,release_dates&limit=50&filter[release_dates.date][gt]="+date1+"&filter[release_dates.date][lte]="+date2,\n        headers={\n            "X-Mashape-Key": IGBDkey,\n            "Accept": "application/json"\n        }\n    )\n    return response\n\n    \n#gets a single game\'s data using it\'s ID\n#@cache(request.env.path_info,time_expire=30,cache_model=cache.ram)\ndef get_game_data():\n    id = str(request.vars.id)\n    \n    response = requests.get(IBGDurl+"games/"+id+"/?fields=name,summary,storyline,publishers,developers,release_dates,screenshots,cover,videos,themes,game_modes",\n        headers={\n            "X-Mashape-Key": IGBDkey,\n            "Accept": "application/json"\n        }\n    )\n    game_data = {}\n    responseStatus = "OK"\n    print "HERE!"\n    print response\n    if (response.status_code==200):\n         res = response.json()[0]\n         print str(res)\n         gameSummary = "Game Summary not found."\n         gameStoryline = "Game Storyline not found."\n         #TODO: replace temp cover not found image\n         coverDict = dict(\n            coverThumb = "https://www.naplesgarden.org/wp-content/themes/naples_botanical/img/notfound.jpg",\n            coverReg = "https://www.naplesgarden.org/wp-content/themes/naples_botanical/img/notfound.jpg"\n         )\n         publishersList=[]\n         developersList=[]\n         videosList=[]\n         screenshotsList = []\n         releaseList = []\n         themesList =[]\n         gameModeslist = []\n\n         if "summary" in res:\n            gameSummary= res["summary"].encode("utf-8")\n         \n         if "storyline" in res:\n            gameStoryline = res["storyline"].encode("utf-8")\n         \n         if "cover" in res:\n            coverDict[\'coverThumb\'] = IBGDimages+SIZES[\'thumb\']+res[\'cover\']["cloudinary_id"]+".jpg"\n            coverDict[\'coverReg\'] = IBGDimages+SIZES[\'small\']+res[\'cover\']["cloudinary_id"]+".jpg"\n         \n         #gets publishers and developers for the game\n         if "publishers" in res:\n            pub = get_game_dataHelper(res["publishers"])\n            if pub is not None:\n                publishersList = pub\n                \n         if "developers" in res:\n            dev = get_game_dataHelper(res["developers"])\n            if dev is not None:\n                developersList = dev\n        \n         for video in res["videos"]:\n            vid = dict(\n                vidURL = IBGDvideo+video[\'video_id\'],\n                vidName = video[\'name\'],\n            )\n            videosList.append(vid)\n         for screenshot in res["screenshots"]:\n            img = dict(\n                imgSmallURL = IBGDimages+SIZES[\'small\']+screenshot["cloudinary_id"]+".jpg",\n                imgMediumURL = IBGDimages+SIZES[\'med\']+screenshot["cloudinary_id"]+".jpg",\n                imgLargeURL = IBGDimages+SIZES[\'large\']+screenshot["cloudinary_id"]+".jpg",\n            )\n            screenshotsList.append(img)\n            \n         for releaseData in res[\'release_dates\']:\n             s = int(releaseData[\'date\'])/1000.0\n             realDate = datetime.datetime.fromtimestamp(s).strftime(\'%d-%m-%Y.%f\')\n             gameRelease = dict(\n                   date = realDate,\n                   #get the platform name\n                   platform = PLATFORMS[str(releaseData[\'platform\'])],\n                   region = "World Wide"\n                   )\n             if \'region\' in releaseData:\n                   gameRelease[\'region\']= REGIONS[str(releaseData[\'region\'])]\n             releaseList.append(gameRelease)   \n        \n         for theme in res["themes"]:\n            if THEMES[str(theme)] is not None:\n                themesList.append(THEMES[str(theme)])\n         \n         for gameMode in res["game_modes"]:\n            if GAMEMODES[str(gameMode)] is not None:\n                gameModeslist.append(GAMEMODES[str(gameMode)])\n         print "HERE"\n         #put everything together\n         game_data = dict(\n            name = res[\'name\'].encode("utf-8"),\n            id = res[\'id\'],\n            storyline = gameStoryline,\n            summary = gameSummary,\n            publishers = publishersList,\n            developers = developersList,\n            release = releaseList,\n            screenshots = screenshotsList,\n            videos = videosList,\n            cover = coverDict,\n            themes = themesList,\n            gamemodes = gameModeslist  \n         )\n        print "HERE"         \n         print game_data\n    else:\n        responseStatus = "ERROR"\n        \n    return response.json(dict(\n        game_data=game_data,\n    ))\n        \n        \n        \n#gets a developer/publisher name using id    \n#@cache(request.env.path_info,time_expire=30,cache_model=cache.ram)\ndef get_game_dataHelper(listIDs):\n    sID = ""\n    sIDlen = len(listIDs)\n    for id in listIDs:\n        if sIDlen >1:\n            sID = sID+str(id)+\',\'\n            sIDlen=sIDlen-1\n        else:\n            sID = sID+str(id)\n        \n    response = requests.get(IBGDurl+"companies/"+sID+"/?fields=name",\n        headers={\n            "X-Mashape-Key": IGBDkey,\n            "Accept": "application/json"\n        }\n    )\n    if (response.status_code==200):\n        res = response.json()\n        returnList = []\n        for r in res:\n            returnList.append(r["name"])\n        return returnList\n    else:\n        return None\n\n\n\n\n\n    \n    \n#testing\n#get_games(11,2016)\n#get_game_data(\'359\')\n\n\n\n\n\n\nresponse._vars=response._caller(get_game_data)\n'
p7
sS'snapshot'
p8
(dp9
S'exception'
p10
(dp11
S'__getslice__'
p12
S"<method-wrapper '__getslice__' of exceptions.IndentationError object>"
p13
sS'text'
p14
S'\'        print "HERE"         \\n\''
p15
sS'__str__'
p16
S"<method-wrapper '__str__' of exceptions.IndentationError object>"
p17
sS'__reduce__'
p18
S'<built-in method __reduce__ of exceptions.IndentationError object>'
p19
sS'__dict__'
p20
S'{}'
p21
sS'__sizeof__'
p22
S'<built-in method __sizeof__ of exceptions.IndentationError object>'
p23
sS'__init__'
p24
S"<method-wrapper '__init__' of exceptions.IndentationError object>"
p25
sS'__setattr__'
p26
S"<method-wrapper '__setattr__' of exceptions.IndentationError object>"
p27
sS'__reduce_ex__'
p28
S'<built-in method __reduce_ex__ of exceptions.IndentationError object>'
p29
sS'__new__'
p30
S'<built-in method __new__ of type object>'
p31
sS'__format__'
p32
S'<built-in method __format__ of exceptions.IndentationError object>'
p33
sS'__class__'
p34
S"<type 'exceptions.IndentationError'>"
p35
sS'filename'
p36
S"r'C:\\Users\\xsarah\\Desktop\\xborlandax\\University\\cs...lications\\GameDayCalendar\\controllers/gamedata.py'"
p37
sS'lineno'
p38
S'242'
p39
sS'msg'
p40
S"'unindent does not match any outer indentation level'"
p41
sS'__doc__'
p42
S"'Improper indentation.'"
p43
sS'__getitem__'
p44
S"<method-wrapper '__getitem__' of exceptions.IndentationError object>"
p45
sS'__setstate__'
p46
S'<built-in method __setstate__ of exceptions.IndentationError object>'
p47
sS'__getattribute__'
p48
S"<method-wrapper '__getattribute__' of exceptions.IndentationError object>"
p49
sS'print_file_and_line'
p50
S'None'
p51
sS'args'
p52
S'(\'unindent does not match any outer indentation level\', (r\'C:\\Users\\xsarah\\Desktop\\xborlandax\\University\\cs...lications\\GameDayCalendar\\controllers/gamedata.py\', 242, 30, \'        print "HERE"         \\n\'))'
p53
sS'__subclasshook__'
p54
S'<built-in method __subclasshook__ of type object>'
p55
sS'offset'
p56
S'30'
p57
sS'__unicode__'
p58
S'<built-in method __unicode__ of exceptions.IndentationError object>'
p59
sS'__delattr__'
p60
S"<method-wrapper '__delattr__' of exceptions.IndentationError object>"
p61
sS'__repr__'
p62
S"<method-wrapper '__repr__' of exceptions.IndentationError object>"
p63
sS'__hash__'
p64
S"<method-wrapper '__hash__' of exceptions.IndentationError object>"
p65
ssS'evalue'
p66
S'unindent does not match any outer indentation level (controllers/gamedata.py, line 242)'
p67
sS'request'
p68
cgluon.html
XML_unpickle
p69
(S's\x05`\x00\x00<div><table><tr><td style="font-weight:bold;vertical-align:top;">ajax</td><td style="vertical-align:top;">:</td><td><div>True</div></td></tr><tr><td style="font-weight:bold;vertical-align:top;">application</td><td style="vertical-align:top;">:</td><td><div>GameDayCalendar</div></td></tr><tr><td style="font-weight:bold;vertical-align:top;">args</td><td style="vertical-align:top;">:</td><td><div><table></table></div></td></tr><tr><td style="font-weight:bold;vertical-align:top;">cid</td><td style="vertical-align:top;">:</td><td><div>None</div></td></tr><tr><td style="font-weight:bold;vertical-align:top;">client</td><td style="vertical-align:top;">:</td><td><div>127.0.0.1</div></td></tr><tr><td style="font-weight:bold;vertical-align:top;">controller</td><td style="vertical-align:top;">:</td><td><div>gamedata</div></td></tr><tr><td style="font-weight:bold;vertical-align:top;">cookies</td><td style="vertical-align:top;">:</td><td><div><table><tr><td style="font-weight:bold;vertical-align:top;">session_id_admin</td><td style="vertical-align:top;">:</td><td><div>127.0.0.1-32ed2d15-6c23-4ed7-96c7-4810a3cc0569<table><tr><td style="font-weight:bold;vertical-align:top;">comment</td><td style="vertical-align:top;">:</td><td><div></div></td></tr><tr><td style="font-weight:bold;vertical-align:top;">domain</td><td style="vertical-align:top;">:</td><td><div></div></td></tr><tr><td style="font-weight:bold;vertical-align:top;">expires</td><td style="vertical-align:top;">:</td><td><div></div></td></tr><tr><td style="font-weight:bold;vertical-align:top;">httponly</td><td style="vertical-align:top;">:</td><td><div></div></td></tr><tr><td style="font-weight:bold;vertical-align:top;">max-age</td><td style="vertical-align:top;">:</td><td><div></div></td></tr><tr><td style="font-weight:bold;vertical-align:top;">path</td><td style="vertical-align:top;">:</td><td><div></div></td></tr><tr><td style="font-weight:bold;vertical-align:top;">secure</td><td style="vertical-align:top;">:</td><td><div></div></td></tr><tr><td style="font-weight:bold;vertical-align:top;">version</td><td style="vertical-align:top;">:</td><td><div></div></td></tr></table></div></td></tr><tr><td style="font-weight:bold;vertical-align:top;">session_id_gamedaycalendar</td><td style="vertical-align:top;">:</td><td><div>1:17c00c9e-f1ca-4b11-8dc5-f3fada38247b<table><tr><td style="font-weight:bold;vertical-align:top;">comment</td><td style="vertical-align:top;">:</td><td><div></div></td></tr><tr><td style="font-weight:bold;vertical-align:top;">domain</td><td style="vertical-align:top;">:</td><td><div></div></td></tr><tr><td style="font-weight:bold;vertical-align:top;">expires</td><td style="vertical-align:top;">:</td><td><div></div></td></tr><tr><td style="font-weight:bold;vertical-align:top;">httponly</td><td style="vertical-align:top;">:</td><td><div></div></td></tr><tr><td style="font-weight:bold;vertical-align:top;">max-age</td><td style="vertical-align:top;">:</td><td><div></div></td></tr><tr><td style="font-weight:bold;vertical-align:top;">path</td><td style="vertical-align:top;">:</td><td><div></div></td></tr><tr><td style="font-weight:bold;vertical-align:top;">secure</td><td style="vertical-align:top;">:</td><td><div></div></td></tr><tr><td style="font-weight:bold;vertical-align:top;">version</td><td style="vertical-align:top;">:</td><td><div></div></td></tr></table></div></td></tr><tr><td style="font-weight:bold;vertical-align:top;">session_id_welcome</td><td style="vertical-align:top;">:</td><td><div>127.0.0.1-84269867-3c61-4d1d-9520-b03ca49b05b9<table><tr><td style="font-weight:bold;vertical-align:top;">comment</td><td style="vertical-align:top;">:</td><td><div></div></td></tr><tr><td style="font-weight:bold;vertical-align:top;">domain</td><td style="vertical-align:top;">:</td><td><div></div></td></tr><tr><td style="font-weight:bold;vertical-align:top;">expires</td><td style="vertical-align:top;">:</td><td><div></div></td></tr><tr><td style="font-weight:bold;vertical-align:top;">httponly</td><td style="vertical-align:top;">:</td><td><div></div></td></tr><tr><td style="font-weight:bold;vertical-align:top;">max-age</td><td style="vertical-align:top;">:</td><td><div></div></td></tr><tr><td style="font-weight:bold;vertical-align:top;">path</td><td style="vertical-align:top;">:</td><td><div></div></td></tr><tr><td style="font-weight:bold;vertical-align:top;">secure</td><td style="vertical-align:top;">:</td><td><div></div></td></tr><tr><td style="font-weight:bold;vertical-align:top;">version</td><td style="vertical-align:top;">:</td><td><div></div></td></tr></table></div></td></tr></table></div></td></tr><tr><td style="font-weight:bold;vertical-align:top;">env</td><td style="vertical-align:top;">:</td><td><div><table><tr><td style="font-weight:bold;vertical-align:top;">HTTP_ACCEPT</td><td style="vertical-align:top;">:</td><td><div>application/json, text/javascript, */*; q=0.01</div></td></tr><tr><td style="font-weight:bold;vertical-align:top;">HTTP_ACCEPT_ENCODING</td><td style="vertical-align:top;">:</td><td><div>gzip, deflate, sdch, br</div></td></tr><tr><td style="font-weight:bold;vertical-align:top;">HTTP_ACCEPT_LANGUAGE</td><td style="vertical-align:top;">:</td><td><div>en-US,en;q=0.8</div></td></tr><tr><td style="font-weight:bold;vertical-align:top;">HTTP_CONNECTION</td><td style="vertical-align:top;">:</td><td><div>keep-alive</div></td></tr><tr><td style="font-weight:bold;vertical-align:top;">HTTP_COOKIE</td><td style="vertical-align:top;">:</td><td><div>session_id_welcome=127.0.0.1-84269867-3c61-4d1d-9520-b03ca49b05b9; session_id_admin=127.0.0.1-32ed2d15-6c23-4ed7-96c7-4810a3cc0569; session_id_gamedaycalendar=&quot;1:17c00c9e-f1ca-4b11-8dc5-f3fada38247b&quot;</div></td></tr><tr><td style="font-weight:bold;vertical-align:top;">HTTP_HOST</td><td style="vertical-align:top;">:</td><td><div>127.0.0.1:8000</div></td></tr><tr><td style="font-weight:bold;vertical-align:top;">HTTP_REFERER</td><td style="vertical-align:top;">:</td><td><div>http://127.0.0.1:8000/GameDayCalendar/default/index</div></td></tr><tr><td style="font-weight:bold;vertical-align:top;">HTTP_USER_AGENT</td><td style="vertical-align:top;">:</td><td><div>Mozilla/5.0 (Windows NT 6.3; WOW64) AppleWebKit/537.36 (KHTML, like Gecko) Chrome/54.0.2840.99 Safari/537.36</div></td></tr><tr><td style="font-weight:bold;vertical-align:top;">HTTP_X_REQUESTED_WITH</td><td style="vertical-align:top;">:</td><td><div>XMLHttpRequest</div></td></tr><tr><td style="font-weight:bold;vertical-align:top;">PATH_INFO</td><td style="vertical-align:top;">:</td><td><div>/GameDayCalendar/gamedata/get_game_data</div></td></tr><tr><td style="font-weight:bold;vertical-align:top;">QUERY_STRING</td><td style="vertical-align:top;">:</td><td><div>id=359</div></td></tr><tr><td style="font-weight:bold;vertical-align:top;">REMOTE_ADDR</td><td style="vertical-align:top;">:</td><td><div>127.0.0.1</div></td></tr><tr><td style="font-weight:bold;vertical-align:top;">REMOTE_PORT</td><td style="vertical-align:top;">:</td><td><div>63022</div></td></tr><tr><td style="font-weight:bold;vertical-align:top;">REQUEST_METHOD</td><td style="vertical-align:top;">:</td><td><div>GET</div></td></tr><tr><td style="font-weight:bold;vertical-align:top;">SCRIPT_NAME</td><td style="vertical-align:top;">:</td><td><div></div></td></tr><tr><td style="font-weight:bold;vertical-align:top;">SERVER_NAME</td><td style="vertical-align:top;">:</td><td><div>SAB</div></td></tr><tr><td style="font-weight:bold;vertical-align:top;">SERVER_PORT</td><td style="vertical-align:top;">:</td><td><div>8000</div></td></tr><tr><td style="font-weight:bold;vertical-align:top;">SERVER_PROTOCOL</td><td style="vertical-align:top;">:</td><td><div>HTTP/1.1</div></td></tr><tr><td style="font-weight:bold;vertical-align:top;">SERVER_SOFTWARE</td><td style="vertical-align:top;">:</td><td><div>Rocket 1.2.6</div></td></tr><tr><td style="font-weight:bold;vertical-align:top;">app_folders</td><td style="vertical-align:top;">:</td><td><div>set([&#x27;C:\\\\Users\\\\xsarah\\\\Desktop\\\\xborlandax\\\\University\\\\cs183\\\\web2py\\\\applications\\\\GameDayCalendar\\\\&#x27;, &#x27;C:\\\\Users\\\\xsarah\\\\Desktop\\\\xborlandax\\\\University\\\\cs183\\\\web2py\\\\applications\\\\admin\\\\&#x27;, &#x27;C:\\\\Users\\\\xsarah\\\\Desktop\\\\xborlandax\\\\University\\\\cs183\\\\web2py\\\\applications\\\\welcome\\\\&#x27;])</div></td></tr><tr><td style="font-weight:bold;vertical-align:top;">applications_parent</td><td style="vertical-align:top;">:</td><td><div>C:\\Users\\xsarah\\Desktop\\xborlandax\\University\\cs183\\web2py</div></td></tr><tr><td style="font-weight:bold;vertical-align:top;">cmd_args</td><td style="vertical-align:top;">:</td><td><div><table></table></div></td></tr><tr><td style="font-weight:bold;vertical-align:top;">cmd_options</td><td style="vertical-align:top;">:</td><td><div>&lt;Values at 0x3d92fa8: {&#x27;verbose&#x27;: False, &#x27;ip&#x27;: &#x27;127.0.0.1&#x27;, &#x27;debuglevel&#x27;: 30, &#x27;with_scheduler&#x27;: False, &#x27;shutdown_timeout&#x27;: 5, &#x27;taskbar&#x27;: False, &#x27;with_coverage&#x27;: False, &#x27;pid_filename&#x27;: &#x27;httpserver.pid&#x27;, &#x27;maxthreads&#x27;: None, &#x27;softcron&#x27;: False, &#x27;server_name&#x27;: &#x27;SAB&#x27;, &#x27;bpython&#x27;: False, &#x27;nogui&#x27;: False, &#x27;port&#x27;: 8000, &#x27;print_errors&#x27;: False, &#x27;extcron&#x27;: False, &#x27;runcron&#x27;: False, &#x27;run_system_tests&#x27;: False, &#x27;test&#x27;: None, &#x27;folder&#x27;: &#x27;C:\\\\Users\\\\xsarah\\\\Desktop\\\\xborlandax\\\\University\\\\cs183\\\\web2py&#x27;, &#x27;config&#x27;: &#x27;&#x27;, &#x27;minthreads&#x27;: None, &#x27;shell&#x27;: None, &#x27;run&#x27;: &#x27;&#x27;, &#x27;log_filename&#x27;: &#x27;httpserver.log&#x27;, &#x27;profiler_dir&#x27;: None, &#x27;args&#x27;: [&#x27;&#x27;], &#x27;socket_timeout&#x27;: 5, &#x27;ssl_ca_certificate&#x27;: None, &#x27;scheduler&#x27;: None, &#x27;interfaces&#x27;: None, &#x27;ssl_private_key&#x27;: &#x27;&#x27;, &#x27;gae&#x27;: None, &#x27;password&#x27;: &#x27;******&#x27;, &#x27;request_queue_size&#x27;: 5, &#x27;ssl_certificate&#x27;: &#x27;&#x27;, &#x27;cronjob&#x27;: False, &#x27;numthreads&#x27;: None, &#x27;quiet&#x27;: False, &#x27;import_models&#x27;: False, &#x27;timeout&#x27;: 10, &#x27;plain&#x27;: False, &#x27;nobanner&#x27;: False}&gt;</div></td></tr><tr><td style="font-weight:bold;vertical-align:top;">db_sessions</td><td style="vertical-align:top;">:</td><td><div>set([&#x27;GameDayCalendar&#x27;])</div></td></tr><tr><td style="font-weight:bold;vertical-align:top;">debugging</td><td style="vertical-align:top;">:</td><td><div>False</div></td></tr><tr><td style="font-weight:bold;vertical-align:top;">gluon_parent</td><td style="vertical-align:top;">:</td><td><div>C:\\Users\\xsarah\\Desktop\\xborlandax\\University\\cs183\\web2py</div></td></tr><tr><td style="font-weight:bold;vertical-align:top;">http_accept</td><td style="vertical-align:top;">:</td><td><div>application/json, text/javascript, */*; q=0.01</div></td></tr><tr><td style="font-weight:bold;vertical-align:top;">http_accept_encoding</td><td style="vertical-align:top;">:</td><td><div>gzip, deflate, sdch, br</div></td></tr><tr><td style="font-weight:bold;vertical-align:top;">http_accept_language</td><td style="vertical-align:top;">:</td><td><div>en-US,en;q=0.8</div></td></tr><tr><td style="font-weight:bold;vertical-align:top;">http_connection</td><td style="vertical-align:top;">:</td><td><div>keep-alive</div></td></tr><tr><td style="font-weight:bold;vertical-align:top;">http_cookie</td><td style="vertical-align:top;">:</td><td><div>session_id_welcome=127.0.0.1-84269867-3c61-4d1d-9520-b03ca49b05b9; session_id_admin=127.0.0.1-32ed2d15-6c23-4ed7-96c7-4810a3cc0569; session_id_gamedaycalendar=&quot;1:17c00c9e-f1ca-4b11-8dc5-f3fada38247b&quot;</div></td></tr><tr><td style="font-weight:bold;vertical-align:top;">http_host</td><td style="vertical-align:top;">:</td><td><div>127.0.0.1:8000</div></td></tr><tr><td style="font-weight:bold;vertical-align:top;">http_referer</td><td style="vertical-align:top;">:</td><td><div>http://127.0.0.1:8000/GameDayCalendar/default/index</div></td></tr><tr><td style="font-weight:bold;vertical-align:top;">http_user_agent</td><td style="vertical-align:top;">:</td><td><div>Mozilla/5.0 (Windows NT 6.3; WOW64) AppleWebKit/537.36 (KHTML, like Gecko) Chrome/54.0.2840.99 Safari/537.36</div></td></tr><tr><td style="font-weight:bold;vertical-align:top;">http_x_requested_with</td><td style="vertical-align:top;">:</td><td><div>XMLHttpRequest</div></td></tr><tr><td style="font-weight:bold;vertical-align:top;">is_jython</td><td style="vertical-align:top;">:</td><td><div>False</div></td></tr><tr><td style="font-weight:bold;vertical-align:top;">is_pypy</td><td style="vertical-align:top;">:</td><td><div>False</div></td></tr><tr><td style="font-weight:bold;vertical-align:top;">is_source</td><td style="vertical-align:top;">:</td><td><div>True</div></td></tr><tr><td style="font-weight:bold;vertical-align:top;">local_hosts</td><td style="vertical-align:top;">:</td><td><div><table><tr><td><div>192.168.1.27</div></td></tr><tr><td><div>2001:0:5ef5:79fb:10c5:2fe6:9d07:30a7</div></td></tr><tr><td><div>SAB</div></td></tr><tr><td><div>::ffff:127.0.0.1</div></td></tr><tr><td><div>::1</div></td></tr><tr><td><div>fe80::f907:4247:a6c1:59ac%8</div></td></tr><tr><td><div>fe80::10c5:2fe6:9d07:30a7%5</div></td></tr><tr><td><div>fe80::bceb:fcc3:2a79:f927%3</div></td></tr><tr><td><div>127.0.0.1</div></td></tr><tr><td><div>192.168.56.1</div></td></tr></table></div></td></tr><tr><td style="font-weight:bold;vertical-align:top;">path_info</td><td style="vertical-align:top;">:</td><td><div>/GameDayCalendar/gamedata/get_game_data</div></td></tr><tr><td style="font-weight:bold;vertical-align:top;">query_string</td><td style="vertical-align:top;">:</td><td><div>id=359</div></td></tr><tr><td style="font-weight:bold;vertical-align:top;">remote_addr</td><td style="vertical-align:top;">:</td><td><div>127.0.0.1</div></td></tr><tr><td style="font-weight:bold;vertical-align:top;">remote_port</td><td style="vertical-align:top;">:</td><td><div>63022</div></td></tr><tr><td style="font-weight:bold;vertical-align:top;">request_method</td><td style="vertical-align:top;">:</td><td><div>GET</div></td></tr><tr><td style="font-weight:bold;vertical-align:top;">request_uri</td><td style="vertical-align:top;">:</td><td><div>/GameDayCalendar/gamedata/get_game_data?id=359</div></td></tr><tr><td style="font-weight:bold;vertical-align:top;">script_name</td><td style="vertical-align:top;">:</td><td><div></div></td></tr><tr><td style="font-weight:bold;vertical-align:top;">server_name</td><td style="vertical-align:top;">:</td><td><div>SAB</div></td></tr><tr><td style="font-weight:bold;vertical-align:top;">server_port</td><td style="vertical-align:top;">:</td><td><div>8000</div></td></tr><tr><td style="font-weight:bold;vertical-align:top;">server_protocol</td><td style="vertical-align:top;">:</td><td><div>HTTP/1.1</div></td></tr><tr><td style="font-weight:bold;vertical-align:top;">server_software</td><td style="vertical-align:top;">:</td><td><div>Rocket 1.2.6</div></td></tr><tr><td style="font-weight:bold;vertical-align:top;">web2py_path</td><td style="vertical-align:top;">:</td><td><div>C:\\Users\\xsarah\\Desktop\\xborlandax\\University\\cs183\\web2py</div></td></tr><tr><td style="font-weight:bold;vertical-align:top;">web2py_version</td><td style="vertical-align:top;">:</td><td><div>2.14.6-stable+timestamp.2016.05.10.00.21.47</div></td></tr><tr><td style="font-weight:bold;vertical-align:top;">wsgi.errors</td><td style="vertical-align:top;">:</td><td><div>&lt;open file &#x27;&lt;stderr&gt;&#x27;, mode &#x27;w&#x27; at 0x02C6D0D0&gt;</div></td></tr><tr><td style="font-weight:bold;vertical-align:top;">wsgi.file_wrapper</td><td style="vertical-align:top;">:</td><td><div>&lt;class wsgiref.util.FileWrapper at 0x03D52B58&gt;</div></td></tr><tr><td style="font-weight:bold;vertical-align:top;">wsgi.input</td><td style="vertical-align:top;">:</td><td><div>&lt;socket._fileobject object at 0x0AD31830&gt;</div></td></tr><tr><td style="font-weight:bold;vertical-align:top;">wsgi.multiprocess</td><td style="vertical-align:top;">:</td><td><div>False</div></td></tr><tr><td style="font-weight:bold;vertical-align:top;">wsgi.multithread</td><td style="vertical-align:top;">:</td><td><div>True</div></td></tr><tr><td style="font-weight:bold;vertical-align:top;">wsgi.run_once</td><td style="vertical-align:top;">:</td><td><div>False</div></td></tr><tr><td style="font-weight:bold;vertical-align:top;">wsgi.url_scheme</td><td style="vertical-align:top;">:</td><td><div>http</div></td></tr><tr><td style="font-weight:bold;vertical-align:top;">wsgi.version</td><td style="vertical-align:top;">:</td><td><div><table><tr><td><div>1</div></td></tr><tr><td><div>0</div></td></tr></table></div></td></tr><tr><td style="font-weight:bold;vertical-align:top;">wsgi_errors</td><td style="vertical-align:top;">:</td><td><div>&lt;open file &#x27;&lt;stderr&gt;&#x27;, mode &#x27;w&#x27; at 0x02C6D0D0&gt;</div></td></tr><tr><td style="font-weight:bold;vertical-align:top;">wsgi_file_wrapper</td><td style="vertical-align:top;">:</td><td><div>&lt;class wsgiref.util.FileWrapper at 0x03D52B58&gt;</div></td></tr><tr><td style="font-weight:bold;vertical-align:top;">wsgi_input</td><td style="vertical-align:top;">:</td><td><div>&lt;socket._fileobject object at 0x0AD31830&gt;</div></td></tr><tr><td style="font-weight:bold;vertical-align:top;">wsgi_multiprocess</td><td style="vertical-align:top;">:</td><td><div>False</div></td></tr><tr><td style="font-weight:bold;vertical-align:top;">wsgi_multithread</td><td style="vertical-align:top;">:</td><td><div>True</div></td></tr><tr><td style="font-weight:bold;vertical-align:top;">wsgi_run_once</td><td style="vertical-align:top;">:</td><td><div>False</div></td></tr><tr><td style="font-weight:bold;vertical-align:top;">wsgi_url_scheme</td><td style="vertical-align:top;">:</td><td><div>http</div></td></tr><tr><td style="font-weight:bold;vertical-align:top;">wsgi_version</td><td style="vertical-align:top;">:</td><td><div><table><tr><td><div>1</div></td></tr><tr><td><div>0</div></td></tr></table></div></td></tr></table></div></td></tr><tr><td style="font-weight:bold;vertical-align:top;">extension</td><td style="vertical-align:top;">:</td><td><div>html</div></td></tr><tr><td style="font-weight:bold;vertical-align:top;">folder</td><td style="vertical-align:top;">:</td><td><div>C:\\Users\\xsarah\\Desktop\\xborlandax\\University\\cs183\\web2py\\applications\\GameDayCalendar\\</div></td></tr><tr><td style="font-weight:bold;vertical-align:top;">function</td><td style="vertical-align:top;">:</td><td><div>get_game_data</div></td></tr><tr><td style="font-weight:bold;vertical-align:top;">global_settings</td><td style="vertical-align:top;">:</td><td><div><table><tr><td style="font-weight:bold;vertical-align:top;">app_folders</td><td style="vertical-align:top;">:</td><td><div>set([&#x27;C:\\\\Users\\\\xsarah\\\\Desktop\\\\xborlandax\\\\University\\\\cs183\\\\web2py\\\\applications\\\\GameDayCalendar\\\\&#x27;, &#x27;C:\\\\Users\\\\xsarah\\\\Desktop\\\\xborlandax\\\\University\\\\cs183\\\\web2py\\\\applications\\\\admin\\\\&#x27;, &#x27;C:\\\\Users\\\\xsarah\\\\Desktop\\\\xborlandax\\\\University\\\\cs183\\\\web2py\\\\applications\\\\welcome\\\\&#x27;])</div></td></tr><tr><td style="font-weight:bold;vertical-align:top;">applications_parent</td><td style="vertical-align:top;">:</td><td><div>C:\\Users\\xsarah\\Desktop\\xborlandax\\University\\cs183\\web2py</div></td></tr><tr><td style="font-weight:bold;vertical-align:top;">cmd_args</td><td style="vertical-align:top;">:</td><td><div><table></table></div></td></tr><tr><td style="font-weight:bold;vertical-align:top;">cmd_options</td><td style="vertical-align:top;">:</td><td><div>&lt;Values at 0x3d92fa8: {&#x27;verbose&#x27;: False, &#x27;ip&#x27;: &#x27;127.0.0.1&#x27;, &#x27;debuglevel&#x27;: 30, &#x27;with_scheduler&#x27;: False, &#x27;shutdown_timeout&#x27;: 5, &#x27;taskbar&#x27;: False, &#x27;with_coverage&#x27;: False, &#x27;pid_filename&#x27;: &#x27;httpserver.pid&#x27;, &#x27;maxthreads&#x27;: None, &#x27;softcron&#x27;: False, &#x27;server_name&#x27;: &#x27;SAB&#x27;, &#x27;bpython&#x27;: False, &#x27;nogui&#x27;: False, &#x27;port&#x27;: 8000, &#x27;print_errors&#x27;: False, &#x27;extcron&#x27;: False, &#x27;runcron&#x27;: False, &#x27;run_system_tests&#x27;: False, &#x27;test&#x27;: None, &#x27;folder&#x27;: &#x27;C:\\\\Users\\\\xsarah\\\\Desktop\\\\xborlandax\\\\University\\\\cs183\\\\web2py&#x27;, &#x27;config&#x27;: &#x27;&#x27;, &#x27;minthreads&#x27;: None, &#x27;shell&#x27;: None, &#x27;run&#x27;: &#x27;&#x27;, &#x27;log_filename&#x27;: &#x27;httpserver.log&#x27;, &#x27;profiler_dir&#x27;: None, &#x27;args&#x27;: [&#x27;&#x27;], &#x27;socket_timeout&#x27;: 5, &#x27;ssl_ca_certificate&#x27;: None, &#x27;scheduler&#x27;: None, &#x27;interfaces&#x27;: None, &#x27;ssl_private_key&#x27;: &#x27;&#x27;, &#x27;gae&#x27;: None, &#x27;password&#x27;: &#x27;******&#x27;, &#x27;request_queue_size&#x27;: 5, &#x27;ssl_certificate&#x27;: &#x27;&#x27;, &#x27;cronjob&#x27;: False, &#x27;numthreads&#x27;: None, &#x27;quiet&#x27;: False, &#x27;import_models&#x27;: False, &#x27;timeout&#x27;: 10, &#x27;plain&#x27;: False, &#x27;nobanner&#x27;: False}&gt;</div></td></tr><tr><td style="font-weight:bold;vertical-align:top;">db_sessions</td><td style="vertical-align:top;">:</td><td><div>set([&#x27;GameDayCalendar&#x27;])</div></td></tr><tr><td style="font-weight:bold;vertical-align:top;">debugging</td><td style="vertical-align:top;">:</td><td><div>False</div></td></tr><tr><td style="font-weight:bold;vertical-align:top;">gluon_parent</td><td style="vertical-align:top;">:</td><td><div>C:\\Users\\xsarah\\Desktop\\xborlandax\\University\\cs183\\web2py</div></td></tr><tr><td style="font-weight:bold;vertical-align:top;">is_jython</td><td style="vertical-align:top;">:</td><td><div>False</div></td></tr><tr><td style="font-weight:bold;vertical-align:top;">is_pypy</td><td style="vertical-align:top;">:</td><td><div>False</div></td></tr><tr><td style="font-weight:bold;vertical-align:top;">is_source</td><td style="vertical-align:top;">:</td><td><div>True</div></td></tr><tr><td style="font-weight:bold;vertical-align:top;">local_hosts</td><td style="vertical-align:top;">:</td><td><div><table><tr><td><div>192.168.1.27</div></td></tr><tr><td><div>2001:0:5ef5:79fb:10c5:2fe6:9d07:30a7</div></td></tr><tr><td><div>SAB</div></td></tr><tr><td><div>::ffff:127.0.0.1</div></td></tr><tr><td><div>::1</div></td></tr><tr><td><div>fe80::f907:4247:a6c1:59ac%8</div></td></tr><tr><td><div>fe80::10c5:2fe6:9d07:30a7%5</div></td></tr><tr><td><div>fe80::bceb:fcc3:2a79:f927%3</div></td></tr><tr><td><div>127.0.0.1</div></td></tr><tr><td><div>192.168.56.1</div></td></tr></table></div></td></tr><tr><td style="font-weight:bold;vertical-align:top;">web2py_version</td><td style="vertical-align:top;">:</td><td><div>2.14.6-stable+timestamp.2016.05.10.00.21.47</div></td></tr></table></div></td></tr><tr><td style="font-weight:bold;vertical-align:top;">is_https</td><td style="vertical-align:top;">:</td><td><div>False</div></td></tr><tr><td style="font-weight:bold;vertical-align:top;">is_local</td><td style="vertical-align:top;">:</td><td><div>True</div></td></tr><tr><td style="font-weight:bold;vertical-align:top;">is_restful</td><td style="vertical-align:top;">:</td><td><div>False</div></td></tr><tr><td style="font-weight:bold;vertical-align:top;">is_scheduler</td><td style="vertical-align:top;">:</td><td><div>False</div></td></tr><tr><td style="font-weight:bold;vertical-align:top;">is_shell</td><td style="vertical-align:top;">:</td><td><div>False</div></td></tr><tr><td style="font-weight:bold;vertical-align:top;">now</td><td style="vertical-align:top;">:</td><td><div>datetime.datetime(2016, 11, 19, 20, 54, 11, 825000)</div></td></tr><tr><td style="font-weight:bold;vertical-align:top;">raw_args</td><td style="vertical-align:top;">:</td><td><div></div></td></tr><tr><td style="font-weight:bold;vertical-align:top;">raw_extension</td><td style="vertical-align:top;">:</td><td><div>None</div></td></tr><tr><td style="font-weight:bold;vertical-align:top;">url</td><td style="vertical-align:top;">:</td><td><div>/GameDayCalendar/gamedata/get_game_data</div></td></tr><tr><td style="font-weight:bold;vertical-align:top;">utcnow</td><td style="vertical-align:top;">:</td><td><div>datetime.datetime(2016, 11, 20, 4, 54, 11, 825000)</div></td></tr><tr><td style="font-weight:bold;vertical-align:top;">wsgi</td><td style="vertical-align:top;">:</td><td><div>&lt;gluon.main.LazyWSGI object at 0x0AE8AA10&gt;</div></td></tr></table></div>'
tRp70
sS'frames'
p71
(lp72
(dp73
S'file'
p74
S'C:\\Users\\xsarah\\Desktop\\xborlandax\\University\\cs183\\web2py\\gluon\\restricted.py'
p75
sS'dump'
p76
(dp77
S'code'
p78
S"'# pulls data about games and puts them into the ...\\n\\nresponse._vars=response._caller(get_game_data)\\n'"
p79
sS'layer'
p80
S"r'C:\\Users\\xsarah\\Desktop\\xborlandax\\University\\cs...lications\\GameDayCalendar\\controllers/gamedata.py'"
p81
sS'global compile2'
p82
S'<function compile2>'
p83
sS'ccode'
p84
S'undefined'
p85
ssS'lnum'
p86
I226
sS'lines'
p87
(dp88
I224
S'            ccode = code'
p89
sI225
S'        else:'
p90
sI226
S'            ccode = compile2(code, layer)'
p91
sI227
S'        exec ccode in environment'
p92
sI228
S'    except HTTP:'
p93
sI229
S'        raise'
p94
sI230
S'    except RestrictedError:'
p95
sI221
S"    environment['__name__'] = '__restricted__'"
p96
sI222
S'    try:'
p97
sI223
S'        if isinstance(code, types.CodeType):'
p98
ssS'call'
p99
S"(code='# pulls data about games and puts them into the ...\\n\\nresponse._vars=response._caller(get_game_data)\\n', environment={'A': <class 'gluon.html.A'>, 'ANY_OF': <class 'gluon.validators.ANY_OF'>, 'ASSIGNJS': <function ASSIGNJS>, 'AppConfig': <function AppConfig>, 'Auth': <class 'gluon.tools.Auth'>, 'B': <class 'gluon.html.B'>, 'BEAUTIFY': <class 'gluon.html.BEAUTIFY'>, 'BODY': <class 'gluon.html.BODY'>, 'BR': <class 'gluon.html.BR'>, 'BUTTON': <class 'gluon.html.BUTTON'>, ...}, layer=r'C:\\Users\\xsarah\\Desktop\\xborlandax\\University\\cs...lications\\GameDayCalendar\\controllers/gamedata.py')"
p100
sS'func'
p101
S'restricted'
p102
sa(dp103
g74
S'C:\\Users\\xsarah\\Desktop\\xborlandax\\University\\cs183\\web2py\\gluon\\restricted.py'
p104
sg76
(dp105
S'builtincompile'
p106
S'<built-in function compile>'
p107
sS'code'
p108
S"'# pulls data about games and puts them into the ...\\n\\nresponse._vars=response._caller(get_game_data)\\n'"
p109
sS'code.rstrip'
p110
S'<built-in method rstrip of str object>'
p111
sS').replace'
p112
g85
sS'layer'
p113
S"r'C:\\Users\\xsarah\\Desktop\\xborlandax\\University\\cs...lications\\GameDayCalendar\\controllers/gamedata.py'"
p114
ssg86
I209
sg87
(dp115
I204
S'def compile2(code, layer):'
p116
sI205
S'    """'
p117
sI206
S"    The ``+'\\\\n'`` is necessary else compile fails when code ends in a comment."
p118
sI207
S'    """'
p119
sI208
S''
sI209
S"    return compile(code.rstrip().replace('\\r\\n', '\\n') + '\\n', layer, 'exec')"
p120
sI210
S''
sI211
S''
sI212
S"def restricted(code, environment=None, layer='Unknown'):"
p121
sI213
S'    """'
p122
ssg99
S"(code='# pulls data about games and puts them into the ...\\n\\nresponse._vars=response._caller(get_game_data)\\n', layer=r'C:\\Users\\xsarah\\Desktop\\xborlandax\\University\\cs...lications\\GameDayCalendar\\controllers/gamedata.py')"
p123
sg101
S'compile2'
p124
sasS'pyver'
p125
S'Python 2.7.12: C:\\Python27\\python.exe (prefix: C:\\Python27)'
p126
sS'session'
p127
g69
(S's\x1a\x00\x00\x00<div><table></table></div>'
tRp128
sS'etype'
p129
S"<type 'exceptions.IndentationError'>"
p130
sS'date'
p131
S'Sat Nov 19 20:54:11 2016'
p132
sS'response'
p133
g69
(S's\x9b5\x00\x00<div><table><tr><td style="font-weight:bold;vertical-align:top;">body</td><td style="vertical-align:top;">:</td><td><div>&lt;cStringIO.StringO object at 0x0AE8A580&gt;</div></td></tr><tr><td style="font-weight:bold;vertical-align:top;">cookies</td><td style="vertical-align:top;">:</td><td><div><table><tr><td style="font-weight:bold;vertical-align:top;">session_id_gamedaycalendar</td><td style="vertical-align:top;">:</td><td><div>1:17c00c9e-f1ca-4b11-8dc5-f3fada38247b<table><tr><td style="font-weight:bold;vertical-align:top;">comment</td><td style="vertical-align:top;">:</td><td><div></div></td></tr><tr><td style="font-weight:bold;vertical-align:top;">domain</td><td style="vertical-align:top;">:</td><td><div></div></td></tr><tr><td style="font-weight:bold;vertical-align:top;">expires</td><td style="vertical-align:top;">:</td><td><div></div></td></tr><tr><td style="font-weight:bold;vertical-align:top;">httponly</td><td style="vertical-align:top;">:</td><td><div></div></td></tr><tr><td style="font-weight:bold;vertical-align:top;">max-age</td><td style="vertical-align:top;">:</td><td><div></div></td></tr><tr><td style="font-weight:bold;vertical-align:top;">path</td><td style="vertical-align:top;">:</td><td><div>/</div></td></tr><tr><td style="font-weight:bold;vertical-align:top;">secure</td><td style="vertical-align:top;">:</td><td><div></div></td></tr><tr><td style="font-weight:bold;vertical-align:top;">version</td><td style="vertical-align:top;">:</td><td><div></div></td></tr></table></div></td></tr></table></div></td></tr><tr><td style="font-weight:bold;vertical-align:top;">delimiters</td><td style="vertical-align:top;">:</td><td><div><table><tr><td><div>{{</div></td></tr><tr><td><div>}}</div></td></tr></table></div></td></tr><tr><td style="font-weight:bold;vertical-align:top;">files</td><td style="vertical-align:top;">:</td><td><div><table></table></div></td></tr><tr><td style="font-weight:bold;vertical-align:top;">flash</td><td style="vertical-align:top;">:</td><td><div></div></td></tr><tr><td style="font-weight:bold;vertical-align:top;">form_label_separator</td><td style="vertical-align:top;">:</td><td><div></div></td></tr><tr><td style="font-weight:bold;vertical-align:top;">formstyle</td><td style="vertical-align:top;">:</td><td><div>bootstrap3_inline</div></td></tr><tr><td style="font-weight:bold;vertical-align:top;">generic_patterns</td><td style="vertical-align:top;">:</td><td><div><table><tr><td><div>*</div></td></tr></table></div></td></tr><tr><td style="font-weight:bold;vertical-align:top;">google_analytics_id</td><td style="vertical-align:top;">:</td><td><div>None</div></td></tr><tr><td style="font-weight:bold;vertical-align:top;">headers</td><td style="vertical-align:top;">:</td><td><div><table><tr><td style="font-weight:bold;vertical-align:top;">X-Powered-By</td><td style="vertical-align:top;">:</td><td><div>web2py</div></td></tr></table></div></td></tr><tr><td style="font-weight:bold;vertical-align:top;">logo</td><td style="vertical-align:top;">:</td><td><div><a class="navbar-brand" href="http://www.web2py.com/" id="web2py-logo"><b>web<span>2</span>py</b>&trade;&nbsp;</a></div></td></tr><tr><td style="font-weight:bold;vertical-align:top;">menu</td><td style="vertical-align:top;">:</td><td><div><table><tr><td><div><table><tr><td><div>Home</div></td></tr><tr><td><div>False</div></td></tr><tr><td><div>/GameDayCalendar/default/index</div></td></tr><tr><td><div><table></table></div></td></tr></table></div></td></tr><tr><td><div><table><tr><td><div>My Sites</div></td></tr><tr><td><div>False</div></td></tr><tr><td><div>/admin/default/site</div></td></tr></table></div></td></tr><tr><td><div><table><tr><td><div>This App</div></td></tr><tr><td><div>False</div></td></tr><tr><td><div>#</div></td></tr><tr><td><div><table><tr><td><div><table><tr><td><div>Design</div></td></tr><tr><td><div>False</div></td></tr><tr><td><div>/admin/default/design/GameDayCalendar</div></td></tr></table></div></td></tr><tr><td><div><li class="divider"></li></div></td></tr><tr><td><div><table><tr><td><div>Controller</div></td></tr><tr><td><div>False</div></td></tr><tr><td><div>/admin/default/edit/GameDayCalendar/controllers/gamedata.py</div></td></tr></table></div></td></tr><tr><td><div><table><tr><td><div>View</div></td></tr><tr><td><div>False</div></td></tr><tr><td><div>/admin/default/edit/GameDayCalendar/views/gamedata/get_game_data.html</div></td></tr></table></div></td></tr><tr><td><div><table><tr><td><div>DB Model</div></td></tr><tr><td><div>False</div></td></tr><tr><td><div>/admin/default/edit/GameDayCalendar/models/db.py</div></td></tr></table></div></td></tr><tr><td><div><table><tr><td><div>Menu Model</div></td></tr><tr><td><div>False</div></td></tr><tr><td><div>/admin/default/edit/GameDayCalendar/models/menu.py</div></td></tr></table></div></td></tr><tr><td><div><table><tr><td><div>Config.ini</div></td></tr><tr><td><div>False</div></td></tr><tr><td><div>/admin/default/edit/GameDayCalendar/private/appconfig.ini</div></td></tr></table></div></td></tr><tr><td><div><table><tr><td><div>Layout</div></td></tr><tr><td><div>False</div></td></tr><tr><td><div>/admin/default/edit/GameDayCalendar/views/layout.html</div></td></tr></table></div></td></tr><tr><td><div><table><tr><td><div>Stylesheet</div></td></tr><tr><td><div>False</div></td></tr><tr><td><div>/admin/default/edit/GameDayCalendar/static/css/web2py-bootstrap3.css</div></td></tr></table></div></td></tr><tr><td><div><table><tr><td><div>Database</div></td></tr><tr><td><div>False</div></td></tr><tr><td><div>/GameDayCalendar/appadmin/index</div></td></tr></table></div></td></tr><tr><td><div><table><tr><td><div>Errors</div></td></tr><tr><td><div>False</div></td></tr><tr><td><div>/admin/default/errors/GameDayCalendar</div></td></tr></table></div></td></tr><tr><td><div><table><tr><td><div>About</div></td></tr><tr><td><div>False</div></td></tr><tr><td><div>/admin/default/about/GameDayCalendar</div></td></tr></table></div></td></tr></table></div></td></tr></table></div></td></tr><tr><td><div><table><tr><td><div>Documentation</div></td></tr><tr><td><div>False</div></td></tr><tr><td><div>#</div></td></tr><tr><td><div><table><tr><td><div><table><tr><td><div>Online book</div></td></tr><tr><td><div>False</div></td></tr><tr><td><div>http://www.web2py.com/book</div></td></tr></table></div></td></tr><tr><td><div><li class="divider"></li></div></td></tr><tr><td><div><table><tr><td><div>Preface</div></td></tr><tr><td><div>False</div></td></tr><tr><td><div>http://www.web2py.com/book/default/chapter/00</div></td></tr></table></div></td></tr><tr><td><div><table><tr><td><div>Introduction</div></td></tr><tr><td><div>False</div></td></tr><tr><td><div>http://www.web2py.com/book/default/chapter/01</div></td></tr></table></div></td></tr><tr><td><div><table><tr><td><div>Python</div></td></tr><tr><td><div>False</div></td></tr><tr><td><div>http://www.web2py.com/book/default/chapter/02</div></td></tr></table></div></td></tr><tr><td><div><table><tr><td><div>Overview</div></td></tr><tr><td><div>False</div></td></tr><tr><td><div>http://www.web2py.com/book/default/chapter/03</div></td></tr></table></div></td></tr><tr><td><div><table><tr><td><div>The Core</div></td></tr><tr><td><div>False</div></td></tr><tr><td><div>http://www.web2py.com/book/default/chapter/04</div></td></tr></table></div></td></tr><tr><td><div><table><tr><td><div>The Views</div></td></tr><tr><td><div>False</div></td></tr><tr><td><div>http://www.web2py.com/book/default/chapter/05</div></td></tr></table></div></td></tr><tr><td><div><table><tr><td><div>Database</div></td></tr><tr><td><div>False</div></td></tr><tr><td><div>http://www.web2py.com/book/default/chapter/06</div></td></tr></table></div></td></tr><tr><td><div><table><tr><td><div>Forms and Validators</div></td></tr><tr><td><div>False</div></td></tr><tr><td><div>http://www.web2py.com/book/default/chapter/07</div></td></tr></table></div></td></tr><tr><td><div><table><tr><td><div>Email and SMS</div></td></tr><tr><td><div>False</div></td></tr><tr><td><div>http://www.web2py.com/book/default/chapter/08</div></td></tr></table></div></td></tr><tr><td><div><table><tr><td><div>Access Control</div></td></tr><tr><td><div>False</div></td></tr><tr><td><div>http://www.web2py.com/book/default/chapter/09</div></td></tr></table></div></td></tr><tr><td><div><table><tr><td><div>Services</div></td></tr><tr><td><div>False</div></td></tr><tr><td><div>http://www.web2py.com/book/default/chapter/10</div></td></tr></table></div></td></tr><tr><td><div><table><tr><td><div>Ajax Recipes</div></td></tr><tr><td><div>False</div></td></tr><tr><td><div>http://www.web2py.com/book/default/chapter/11</div></td></tr></table></div></td></tr><tr><td><div><table><tr><td><div>Components and Plugins</div></td></tr><tr><td><div>False</div></td></tr><tr><td><div>http://www.web2py.com/book/default/chapter/12</div></td></tr></table></div></td></tr><tr><td><div><table><tr><td><div>Deployment Recipes</div></td></tr><tr><td><div>False</div></td></tr><tr><td><div>http://www.web2py.com/book/default/chapter/13</div></td></tr></table></div></td></tr><tr><td><div><table><tr><td><div>Other Recipes</div></td></tr><tr><td><div>False</div></td></tr><tr><td><div>http://www.web2py.com/book/default/chapter/14</div></td></tr></table></div></td></tr><tr><td><div><table><tr><td><div>Helping web2py</div></td></tr><tr><td><div>False</div></td></tr><tr><td><div>http://www.web2py.com/book/default/chapter/15</div></td></tr></table></div></td></tr><tr><td><div><table><tr><td><div>Buy web2py\'s book</div></td></tr><tr><td><div>False</div></td></tr><tr><td><div>http://stores.lulu.com/web2py</div></td></tr></table></div></td></tr></table></div></td></tr></table></div></td></tr></table></div></td></tr><tr><td style="font-weight:bold;vertical-align:top;">meta</td><td style="vertical-align:top;">:</td><td><div><table><tr><td style="font-weight:bold;vertical-align:top;">author</td><td style="vertical-align:top;">:</td><td><div>Your Name &lt;you@example.com&gt;</div></td></tr><tr><td style="font-weight:bold;vertical-align:top;">description</td><td style="vertical-align:top;">:</td><td><div>a cool new app</div></td></tr><tr><td style="font-weight:bold;vertical-align:top;">generator</td><td style="vertical-align:top;">:</td><td><div>Web2py Web Framework</div></td></tr><tr><td style="font-weight:bold;vertical-align:top;">keywords</td><td style="vertical-align:top;">:</td><td><div><table><tr><td><div>web2py</div></td></tr><tr><td><div>python</div></td></tr><tr><td><div>framework</div></td></tr></table></div></td></tr></table></div></td></tr><tr><td style="font-weight:bold;vertical-align:top;">models_to_run</td><td style="vertical-align:top;">:</td><td><div><table><tr><td><div>^\\w+\\.py$</div></td></tr><tr><td><div>^gamedata/\\w+\\.py$</div></td></tr><tr><td><div>^gamedata/get_game_data/\\w+\\.py$</div></td></tr></table></div></td></tr><tr><td style="font-weight:bold;vertical-align:top;">postprocessing</td><td style="vertical-align:top;">:</td><td><div><table></table></div></td></tr><tr><td style="font-weight:bold;vertical-align:top;">session_client</td><td style="vertical-align:top;">:</td><td><div>127.0.0.1</div></td></tr><tr><td style="font-weight:bold;vertical-align:top;">session_cookie_compression_level</td><td style="vertical-align:top;">:</td><td><div>None</div></td></tr><tr><td style="font-weight:bold;vertical-align:top;">session_cookie_expires</td><td style="vertical-align:top;">:</td><td><div>None</div></td></tr><tr><td style="font-weight:bold;vertical-align:top;">session_data_name</td><td style="vertical-align:top;">:</td><td><div>session_data_gamedaycalendar</div></td></tr><tr><td style="font-weight:bold;vertical-align:top;">session_db_record_id</td><td style="vertical-align:top;">:</td><td><div>1L</div></td></tr><tr><td style="font-weight:bold;vertical-align:top;">session_db_table</td><td style="vertical-align:top;">:</td><td><div>&lt;Table web2py_session_GameDayCalendar (id, locked, client_ip, created_datetime, modified_datetime, unique_key, session_data)&gt;</div></td></tr><tr><td style="font-weight:bold;vertical-align:top;">session_db_unique_key</td><td style="vertical-align:top;">:</td><td><div>17c00c9e-f1ca-4b11-8dc5-f3fada38247b</div></td></tr><tr><td style="font-weight:bold;vertical-align:top;">session_hash</td><td style="vertical-align:top;">:</td><td><div>c0762cbf4baf7f9af97c051e7fcb8083</div></td></tr><tr><td style="font-weight:bold;vertical-align:top;">session_id</td><td style="vertical-align:top;">:</td><td><div>1:17c00c9e-f1ca-4b11-8dc5-f3fada38247b</div></td></tr><tr><td style="font-weight:bold;vertical-align:top;">session_id_name</td><td style="vertical-align:top;">:</td><td><div>session_id_gamedaycalendar</div></td></tr><tr><td style="font-weight:bold;vertical-align:top;">session_masterapp</td><td style="vertical-align:top;">:</td><td><div>GameDayCalendar</div></td></tr><tr><td style="font-weight:bold;vertical-align:top;">session_new</td><td style="vertical-align:top;">:</td><td><div>False</div></td></tr><tr><td style="font-weight:bold;vertical-align:top;">session_storage_type</td><td style="vertical-align:top;">:</td><td><div>db</div></td></tr><tr><td style="font-weight:bold;vertical-align:top;">status</td><td style="vertical-align:top;">:</td><td><div>200</div></td></tr><tr><td style="font-weight:bold;vertical-align:top;">subtitle</td><td style="vertical-align:top;">:</td><td><div></div></td></tr><tr><td style="font-weight:bold;vertical-align:top;">title</td><td style="vertical-align:top;">:</td><td><div>Gamedaycalendar</div></td></tr><tr><td style="font-weight:bold;vertical-align:top;">view</td><td style="vertical-align:top;">:</td><td><div>gamedata/get_game_data.html</div></td></tr></table></div>'
tRp134
sS'locals'
p135
(dp136
g4
S"r'C:\\Users\\xsarah\\Desktop\\xborlandax\\University\\cs...lications\\GameDayCalendar\\controllers/gamedata.py'"
p137
sg6
S"'# pulls data about games and puts them into the ...\\n\\nresponse._vars=response._caller(get_game_data)\\n'"
p138
sssS'traceback'
p139
S'Traceback (most recent call last):\n  File "C:\\Users\\xsarah\\Desktop\\xborlandax\\University\\cs183\\web2py\\gluon\\restricted.py", line 226, in restricted\n    ccode = compile2(code, layer)\n  File "C:\\Users\\xsarah\\Desktop\\xborlandax\\University\\cs183\\web2py\\gluon\\restricted.py", line 209, in compile2\n    return compile(code.rstrip().replace(\'\\r\\n\', \'\\n\') + \'\\n\', layer, \'exec\')\n  File "C:\\Users\\xsarah\\Desktop\\xborlandax\\University\\cs183\\web2py\\applications\\GameDayCalendar\\controllers/gamedata.py", line 242\n    print "HERE"\n                        ^\nIndentationError: unindent does not match any outer indentation level\n'
p140
s.