(dp1
S'output'
p2
S"<type 'exceptions.NameError'> name 'selected' is not defined"
p3
sS'layer'
p4
S'C:\\Users\\xsarah\\Desktop\\xborlandax\\University\\cs183\\web2py\\applications\\GameDayCalendar\\views\\default/index.html'
p5
sS'code'
p6
S'response.write(\'<!DOCTYPE html>\\r\\n<!--[if (gt IE 9)|!(IE)]><!--> <html class="no-js" lang="\', escape=False)\nresponse.write(T.accepted_language or \'en\')\nresponse.write(\'"> <!--<![endif]-->\\r\\n  <head>\\r\\n    <meta charset="utf-8">\\r\\n    <!-- www.phpied.com/conditional-comments-block-downloads/ -->\\r\\n    <!-- Always force latest IE rendering engine\\r\\n         (even in intranet) & Chrome Frame\\r\\n         Remove this if you use the .htaccess -->\\r\\n    <meta http-equiv="X-UA-Compatible" content="IE=edge\', escape=False)\nresponse.write(not request.is_local and \',chrome=1\' or \'\')\nresponse.write(\'">\\r\\n    <!--  Mobile Viewport Fix\\r\\n          j.mp/mobileviewport & davidbcalhoun.com/2010/viewport-metatag\\r\\n          device-width: Occupy full width of the screen in its current orientation\\r\\n          initial-scale = 1.0 retains dimensions instead of zooming out if page height > device height\\r\\n          user-scalable = yes allows the user to zoom in -->\\r\\n    <meta name="viewport" content="width=device-width, initial-scale=1.0">\\r\\n    <title>\', escape=False)\nresponse.write(response.title or request.application)\nresponse.write(\'</title>\\r\\n    <!-- http://dev.w3.org/html5/markup/meta.name.html -->\\r\\n    <meta name="application-name" content="\', escape=False)\nresponse.write(request.application)\nresponse.write(\'">\\r\\n    <!-- Speaking of Google, don\\\'t forget to set your site up:\\r\\n         http://google.com/webmasters -->\\r\\n    <meta name="google-site-verification" content="">\\r\\n    <!-- include stylesheets -->\\r\\n    <link rel="stylesheet" href="\', escape=False)\nresponse.write(URL(\'static\',\'css/bootstrap.min.css\'))\nresponse.write(\'"/>\\r\\n    <link rel="stylesheet" href="\', escape=False)\nresponse.write(URL(\'static\',\'css/web2py-bootstrap3.css\'))\nresponse.write(\'"/>\\r\\n    <link rel="stylesheet" href="\', escape=False)\nresponse.write(URL(\'static\',\'css/myapp.css\'))\nresponse.write(\'"/>\\r\\n    <link rel="stylesheet" href="\', escape=False)\nresponse.write(URL(\'static\', \'font-awesome-4.6.3/css/font-awesome.min.css\'))\nresponse.write(\'"/>\\r\\n\\r\\n    <link rel="shortcut icon" href="\', escape=False)\nresponse.write(URL(\'static\',\'images/favicon.ico\'))\nresponse.write(\'" type="image/x-icon">\\r\\n    <link rel="apple-touch-icon" href="\', escape=False)\nresponse.write(URL(\'static\',\'images/favicon.png\'))\nresponse.write(\'">\\r\\n    <!-- All JavaScript at the bottom, except for Modernizr which enables\\r\\n         HTML5 elements & feature detects -->\\r\\n    <script src="\', escape=False)\nresponse.write(URL(\'static\',\'js/modernizr-2.8.3.min.js\'))\nresponse.write(\'"></script>\\r\\n    <!--[if lt IE 9]>\\r\\n        <script src="\', escape=False)\nresponse.write(URL(\'static\',\'js/respond-1.4.2.min.js\'))\nresponse.write(\'"></script>\\r\\n        <![endif]-->\\r\\n    <!-- Favicons -->\\r\\n    \', escape=False)\nresponse.write(\'<script type="text/javascript"><!--\\r\\n    // These variables are used by the web2py_ajax_init function in web2py_ajax.js (which is loaded below).\\r\\n    var w2p_ajax_confirm_message = "\', escape=False)\nresponse.write(T(\'Are you sure you want to delete this object?\'))\nresponse.write(\'";\\r\\n    var w2p_ajax_disable_with_message = "\', escape=False)\nresponse.write(T(\'Working...\'))\nresponse.write(\'";\\r\\n    var w2p_ajax_date_format = "\', escape=False)\nresponse.write(T(\'%Y-%m-%d\'))\nresponse.write(\'";\\r\\n    var w2p_ajax_datetime_format = "\', escape=False)\nresponse.write(T(\'%Y-%m-%d %H:%M:%S\'))\nresponse.write(\'";\\r\\n    var ajax_error_500 = \\\'\', escape=False)\nresponse.write(T.M(\'An error occured, please [[reload %s]] the page\') % URL(args=request.args, vars=request.get_vars))\nresponse.write("\'\\r\\n    //--></script>\\r\\n", escape=False)\nresponse.files.insert(0,URL(\'static\',\'js/jquery.js\'))\nresponse.files.insert(1,URL(\'static\',\'css/calendar.css\'))\nresponse.files.insert(2,URL(\'static\',\'js/calendar.js\'))\nresponse.files.insert(3,URL(\'static\',\'js/web2py.js\'))\nresponse.include_meta()\nresponse.include_files()\nresponse.write(\'\\r\\n\', escape=False)\nresponse.write(\' <!-- this includes jquery.js, calendar.js/.css and web2py.js -->\\r\\n    \', escape=False)\nresponse.write(\'\\r\\n<script src="\', escape=False)\nresponse.write(URL(\'static\', \'js/vue.js\'))\nresponse.write(\'"></script>\\r\\n<script>\\r\\n    var get_games_list_url = "\', escape=False)\nresponse.write(URL(\'gamedata\', \'get_games\', user_signature=False))\nresponse.write(\'";\\r\\n    var get_game_data_url = "\', escape=False)\nresponse.write(URL(\'gamedata\', \'get_game_data\', user_signature=False))\nresponse.write(\'";\\r\\n    var get_gaming_news_url = "\', escape=False)\nresponse.write(URL(\'redditdata\', \'get_gaming_news\', user_signature=False))\nresponse.write(\'";\\r\\n    //user\\\'s list stuff\\r\\n    var get_games_from_userlist_url = "\', escape=False)\nresponse.write(URL(\'gamedata\', \'get_games_from_userlist\', user_signature=False))\nresponse.write(\'";\\r\\n    var add_game_to_userlist_url = "\', escape=False)\nresponse.write(URL(\'gamedata\', \'add_game_to_userlist\', user_signature=False))\nresponse.write(\'";\\r\\n    var rem_game_from_userlist_url = "\', escape=False)\nresponse.write(URL(\'gamedata\', \'rem_game_from_userlist\', user_signature=False))\nresponse.write(\'";\\r\\n    //each game\\\'s personal postings\\r\\n    var get_game_posts_url = "\', escape=False)\nresponse.write(URL(\'gamedata\', \'get_game_postings\', user_signature=False))\nresponse.write(\'";\\r\\n    var add_game_post_url = "\', escape=False)\nresponse.write(URL(\'gamedata\', \'add_game_postings\', user_signature=False))\nresponse.write(\'";\\r\\n    var rem_game_post_url = "\', escape=False)\nresponse.write(URL(\'gamedata\', \'rem_game_postings\', user_signature=False))\nresponse.write(\'";\\r\\n    //user\\\'s messaging system\\r\\n    var get_chat_friends_url = "\', escape=False)\nresponse.write(URL(\'messagedata\', \'get_chat_friends\', user_signature=False))\nresponse.write(\'";\\r\\n    var get_chat_posts_url = "\', escape=False)\nresponse.write(URL(\'messagedata\', \'get_chat_posts\', user_signature=False))\nresponse.write(\'";\\r\\n    var add_chat_post_url = "\', escape=False)\nresponse.write(URL(\'messagedata\', \'add_chat_post\', user_signature=False))\nresponse.write(\'";\\r\\n</script>\\r\\n<link rel=\\\'stylesheet\\\' href="\', escape=False)\nresponse.write(URL(\'static\',\'css/fullcalendar.css\'))\nresponse.write(\'"/>\\r\\n<script src="\', escape=False)\nresponse.write(URL(\'static\', \'js/jquery.min.js\'))\nresponse.write(\'"></script>\\r\\n<script src="\', escape=False)\nresponse.write(URL(\'static\', \'js/moment.min.js\'))\nresponse.write(\'"></script>\\r\\n<script src="\', escape=False)\nresponse.write(URL(\'static\', \'js/fullcalendar.js\'))\nresponse.write(\'"></script>\\r\\n\\r\\n<style>\\r\\n    td, th {\\r\\n        border: 1px solid darkslategray;\\r\\n        text-align: left;\\r\\n        padding: 4px;\\r\\n    }\\r\\n\\r\\n    tr:nth-child(even) {\\r\\n        background-color: lightsteelblue;\\r\\n    }\\r\\n</style>\\r\\n\\r\\n\\r\\n\', escape=False)\nresponse.write(\'\\r\\n    \', escape=False)\n# using sidebars need to know what sidebar you want to use\nmc0 = \'col-md-12\'\nmc1 = \'col-md-9\'\nmc2 = \'col-md-6\'\nleft_sidebar_enabled = globals().get(\'left_sidebar_enabled\', False)\nright_sidebar_enabled = globals().get(\'right_sidebar_enabled\', False)\nmiddle_column = {0: mc0, 1: mc1, 2: mc2}[\n(left_sidebar_enabled and 1 or 0)+(right_sidebar_enabled and 1 or 0)]\nresponse.write(\'\\r\\n  </head>\\r\\n  <body>\\r\\n    <!--[if lt IE 8]><p class="browserupgrade">You are using an <strong>outdated</strong> browser. Please <a href="http://browsehappy.com/">upgrade your browser</a> to improve your experience.</p><![endif]-->\\r\\n    <div class="w2p_flash alert alert-dismissable">\', escape=False)\nresponse.write(response.flash or \'\')\nresponse.write(\'</div>\\r\\n    <!-- Navbar ======================================= -->\\r\\n    <nav class="navbar navbar-default navbar-fixed-top" role="navigation">\\r\\n      <div class="container-fluid">\\r\\n        <div class="navbar-header">\\r\\n          <button type="button" class="navbar-toggle" data-toggle="collapse" data-target=".navbar-collapse">\\r\\n            <span class="sr-only">Toggle navigation</span>\\r\\n            <span class="icon-bar"></span>\\r\\n            <span class="icon-bar"></span>\\r\\n            <span class="icon-bar"></span>\\r\\n          </button>\\r\\n          \', escape=False)\nresponse.write(response.logo or \'\')\nresponse.write(\'\\r\\n        </div>\\r\\n        <div class="collapse navbar-collapse navbar-ex1-collapse">\\r\\n          <ul class="nav navbar-nav navbar-right">\\r\\n            \', escape=False)\nresponse.write(\'auth\' in globals() and auth.navbar(\'Welcome\',mode=\'dropdown\') or \'\')\nresponse.write(\'\\r\\n          </ul>\\r\\n          \', escape=False)\nif response.menu:\n    response.write(\'\\r\\n          \', escape=False)\n    response.write(MENU(response.menu, _class=\'nav navbar-nav\',li_class=\'dropdown\',ul_class=\'dropdown-menu\'))\n    response.write(\'\\r\\n          \', escape=False)\n    pass\nresponse.write(\'\\r\\n        </div>\\r\\n      </div>\\r\\n    </nav>\\r\\n    <!-- Masthead ===================================== -->\\r\\n    \', escape=False)\nresponse.write(\'\\r\\n    \', escape=False)\nresponse.write(\'\\r\\n    <!-- Main ========================================= -->\\r\\n    <!-- Begin page content -->\\r\\n    <div class="container-fluid main-container">\\r\\n      \', escape=False)\nif left_sidebar_enabled:\n    response.write(\'\\r\\n        <div class="col-md-3 left-sidebar">\\r\\n            \', escape=False)\n    response.write(\'\\r\\n            <h3>Left Sidebar</h3>\\r\\n            <p></p>\\r\\n            \', escape=False)\n    response.write(\'\\r\\n        </div>\\r\\n      \', escape=False)\n    pass\nresponse.write(\'\\r\\n\\r\\n      <div class="\', escape=False)\nresponse.write(middle_column)\nresponse.write(\'">\\r\\n        \', escape=False)\nresponse.write(\'\\r\\n        \', escape=False)\nresponse.write(\'\\r\\n\\r\\n\', escape=False)\nresponse.write(\'\\r\\n\\r\\n\\r\\n<div id="vue-div" class="display:none" style="min-width:1920px;min-height:1080px">\\r\\n\\r\\n    <!-- Calender Section -->\\r\\n    <div v-if="page==\\\'calendar\\\'" id="calendar page" style="height:600px;">\\r\\n        <div id="main game and calendar" class="col-md-6">\\r\\n\\r\\n            <!-- Details -->\\r\\n            <div v-if="game_data!=\\\'null\\\'" class="game_table" style="margin-left:10%">\\r\\n                <div class="title"><h2>${game_data.name}</h2></div>\\r\\n                <button id="return calendar" v-on:click="goto(\\\'calendar\\\')" style="background-color:darkslateblue;color:white">\\r\\n                    <i class="fa fa-calendar"></i> Return to Calendar\\r\\n                </button>\\r\\n                <button id="add_game_to_list_button" v-if="game_data.game_in_list==\\\'plus\\\'"\\r\\n                        v-on:click="add_game_list(game_data.id,game_data.name,game_data.coverThumb)"\\r\\n                        style="background-color:lightblue;color:white">\\r\\n                    <i class="fa fa-plus-circle"></i> Add to Personal Game List\\r\\n                </button>\\r\\n\\r\\n                <button id="remove_game_from_list_button" v-if="game_data.game_in_list==\\\'minus\\\'"\\r\\n                        v-on:click="rem_game_list(game_data.id)" style="background-color:red;color:white">\\r\\n                    <i class="fa fa-minus-circle"></i> Remove from Personal Game List\\r\\n                </button>\\r\\n                <span v-if="game_data.game_likes != 1">\\r\\n                    ${game_data.game_likes} people have this in their Personal Game List!\\r\\n                    <span v-if="game_data.game_in_list==\\\'minus\\\'"> (Including you!)</span>\\r\\n                </span>\\r\\n                <span v-if="game_data.game_likes == 1">\\r\\n                    ${game_data.game_likes} person has this in their Personal Game List!\\r\\n                    <span v-if="game_data.game_in_list==\\\'minus\\\'"> (That\\\'s you!)</span>\\r\\n                </span>\\r\\n                <br><br>\\r\\n\\r\\n                <div id="game content"\\r\\n                     style="height:600px;overflow:scroll;overflow-y:scroll;overflow-x:hidden;width: 900px;">\\r\\n                    <table>\\r\\n                        <tbody>\\r\\n                        <tr>\\r\\n                            <td><b>Cover</b></td>\\r\\n                            <td><img v-bind:src="game_data.coverReg"></td>\\r\\n                        </tr>\\r\\n\\r\\n                        <tr>\\r\\n                            <td><b>Release</b></td>\\r\\n                            <td>\\r\\n                                <table>\\r\\n                                    <tr v-for="releaseInfo in game_data.release">\\r\\n                                        <td>Platform: ${releaseInfo.platform}</td>\\r\\n                                        <td>Region: ${releaseInfo.region}</td>\\r\\n                                        <td>Date: ${releaseInfo.date}</td>\\r\\n                                    </tr>\\r\\n                                </table>\\r\\n                            </td>\\r\\n                        </tr>\\r\\n\\r\\n                        <!-- General Information -->\\r\\n                        <tr>\\r\\n                            <td><b>Storyline</b></td>\\r\\n                            <td>${game_data.storyline}</td>\\r\\n                        </tr>\\r\\n                        <tr>\\r\\n                            <td><b>Summary</b></td>\\r\\n                            <td>${game_data.summary}</td>\\r\\n                        </tr>\\r\\n                        <tr>\\r\\n                            <td><b>Publishers</b></td>\\r\\n                            <td>\\r\\n                                <div v-for="pub in game_data.publishers">${pub}</div>\\r\\n                            </td>\\r\\n                        </tr>\\r\\n                        <tr>\\r\\n                            <td><b>Developers</b></td>\\r\\n                            <td>\\r\\n                                <div v-for="dev in game_data.developers">${dev}</div>\\r\\n                            </td>\\r\\n                        </tr>\\r\\n                        <tr>\\r\\n                            <td><b>Themes</b></td>\\r\\n                            <td>\\r\\n                                <div v-for="theme in game_data.themes">${theme}</div>\\r\\n                            </td>\\r\\n                        </tr>\\r\\n                        <tr>\\r\\n                            <td><b>Player Modes</b></td>\\r\\n                            <td>\\r\\n                                <div v-for="mode in game_data.gameModes">${mode}</div>\\r\\n                            </td>\\r\\n                        </tr>\\r\\n                        <!-- End General Information -->\\r\\n\\r\\n                        <!-- Media -->\\r\\n                        <tr>\\r\\n                            <td><b>Screenshots</b></td>\\r\\n                            <td>\\r\\n                        <tr v-for="img in game_data.screenshots">\\r\\n                            <td></td>\\r\\n                            <td><img v-bind:src="img.imgMediumURL"></td>\\r\\n                        </tr>\\r\\n\\r\\n                        <tr>\\r\\n                            <td><b>Videos</b></td>\\r\\n                            <td>\\r\\n                        <tr v-for="vid in game_data.videos">\\r\\n                            <td></td>\\r\\n                            <td>\\r\\n                                <embed v-bind:src="vid.vidURL">\\r\\n                            </td>\\r\\n                        </tr>\\r\\n                        <!-- End Media -->\\r\\n\\r\\n                        </tbody>\\r\\n                    </table>\\r\\n\\r\\n\\r\\n                    <!-- Comments Section -->\\r\\n                    <div class="comments"><h2>Comments</h2></div>\\r\\n                    <div v-if="user_id!=\\\'null\\\'" id="new message section">\\r\\n                        <form action="#" v-on:submit.prevent="add_game_post(game_data.id)" class="form-horizontal"\\r\\n                              enctype="multipart/form-data" method="post">\\r\\n                            <div class="form-group" id="no_table_post_content">\\r\\n                                <div style="padding-left: 20px; padding-right: 20px">\\r\\n                                    <textarea class="form-control string" id="no_table_post_content"\\r\\n                                              v-model="form_post_content"></textarea>\\r\\n                                    <span class="help-block"></span>\\r\\n                                </div>\\r\\n                            </div>\\r\\n                            <div class="new-post-button" id="submit_record__row">\\r\\n                                <div>\\r\\n                                    <input class="btn btn-primary" class="post-button" id="add_post_submit"\\r\\n                                           type="submit" value="Post"/>\\r\\n                                    <input class="btn btn-warning" class="cancel-button" id="cancel_edit_submit"\\r\\n                                           type="reset" value="Clear"/>\\r\\n                                </div>\\r\\n                            </div>\\r\\n                        </form>\\r\\n                    </div>\\r\\n                    <br>\\r\\n                    <span v-if="more_post" class="go forward posts">\\r\\n                        <button v-on:click="get_game_posts(index_post,\\\'more\\\',game_data.id)"\\r\\n                                style="background-color:darkslateblue;color:white">\\r\\n                            <i class="fa fa-arrow-left"></i> Older Comments\\r\\n                        </button>\\r\\n                    </span>\\r\\n                    <span v-if="less_post" class="go back posts">\\r\\n                        <button v-on:click="get_game_posts(index_post,\\\'less\\\',game_data.id)"\\r\\n                                style="background-color:darkslateblue;color:white">\\r\\n                            <i class="fa fa-arrow-right"></i> Newer Comments\\r\\n                        </button>\\r\\n                    </span>\\r\\n                    <div class="post_content">\\r\\n                        <div v-if="game_posts.length!=0">\\r\\n                            <div class="post" v-for="post in game_posts">\\r\\n                                ${post.post_content}\\r\\n                                <div style="color:#0099ff">\\r\\n                                    <table>\\r\\n                                        <tbody>\\r\\n                                        <tr>\\r\\n                                            <br>\\r\\n                                            <div>Posted by ${post.post_name} on ${post.created_on}</div>\\r\\n                                            <div v-if="post.belongs_to_user==true">\\r\\n                                                <button v-on:click="rem_game_post(post.id,game_data.id)">\\r\\n                                                    <i class="fa fa-trash-o"></i> Delete\\r\\n                                                </button>\\r\\n                                            </div>\\r\\n                                            <div v-if="user_id!=\\\'null\\\'">\\r\\n                                                <div v-if="post.belongs_to_user==false">\\r\\n                                                    <button v-on:click="start_chat(post.user_email)">\\r\\n                                                        <i class="fa fa-envelope-o"></i> Message ${post.post_name}\\r\\n                                                    </button>\\r\\n                                                </div>\\r\\n                                            </div>\\r\\n                                        </tr>\\r\\n                                        </tbody>\\r\\n                                    </table>\\r\\n                                </div>\\r\\n                            </div>\\r\\n                        </div>\\r\\n                        <div v-if="game_posts.length==0">\\r\\n                            No comments have been posted on this game. Be the first to comment!\\r\\n                        </div>\\r\\n\\r\\n                    </div>\\r\\n                    <!-- End Comments Section -->\\r\\n                </div>\\r\\n            </div>\\r\\n\\r\\n\\r\\n            <!-- Game Calendar -->\\r\\n            <div v-else style="margin-left:10%">\\r\\n                <div class="title"><h2>Game Calendar - ${monthDisplay} ${yearDisplay}</h2></div>\\r\\n                <button id="previous month" v-on:click="get_games(prevMonth,prevYear)"\\r\\n                        style="background-color:darkslateblue;color:white">\\r\\n                    <i class="fa fa-arrow-left" aria-hidden="true"></i> Previous Month\\r\\n                </button>\\r\\n                <button id="next month" v-on:click="get_games(nextMonth,nextYear)"\\r\\n                        style="background-color:darkslateblue;color:white">\\r\\n                    <i class="fa fa-arrow-right" aria-hidden="true"></i> Next Month\\r\\n                </button>\\r\\n                <br><br>\\r\\n                  <p>\\r\\n    <select v-model="selected">\\r\\n      <option>one</option>\\r\\n      <option>two</option>\\r\\n    </select>\\r\\n    \', escape=False)\nselected\nresponse.write(\'\\r\\n  </p>\\r\\n                <div class="result_table"\\r\\n                     style="height:600px;overflow:scroll;overflow-y:scroll;overflow-x:hidden;width:900px;">\\r\\n                    <table>\\r\\n                        <thead>\\r\\n                        <tr>\\r\\n                            <th></th>\\r\\n                            <th>Name</th>\\r\\n                            <th>Platform</th>\\r\\n                            <th>Region</th>\\r\\n                            <th>Release date</th>\\r\\n                            \\r\\n                            <th>Details</th>\\r\\n                        </tr>\\r\\n                        </thead>\\r\\n                        <tbody>\\r\\n                        <tr v-for="game in game_list" >\\r\\n                            \\r\\n                            <td><img style="width:90px;height:90px;" v-bind:src="game.coverThumb"></td>\\r\\n                            <td style=" font-weight: bold;">${game.name}</h5>\\r\\n                            <td >${game.release[0].platform} </td>\\r\\n                            <td >${game.release[0].region} </td>\\r\\n                            <td> ${game.release[0].date}</td>\\r\\n                            <td>\\r\\n                                <button class="fa fa-gamepad" id="get_game_data_button"\\r\\n                                        v-on:click="get_game_data(game.id)"\\r\\n                                        style="background-color:darkslateblue;color:white"></button>\\r\\n                            </td>\\r\\n                            <!---Debugging. probably can use to check whether or not the game is in the list from the monthly schedule\\r\\n                            <div class="user-game-list container">\\r\\n                            <td v-if="game.game_in_list==\\\'plus\\\'"> <button class="fa fa-plus-circle" id="add_game_to_list"  ></button></td>\\r\\n                            <td v-if="game.game_in_list==\\\'minus\\\'"> <button class="fa fa-minus-circle" id="remove_game_from_list"    ></button></td>\\r\\n\\r\\n                            </div> --->\\r\\n                        </tr>\\r\\n                        </tbody>\\r\\n                    </table>\\r\\n                </div>\\r\\n\\r\\n\\r\\n            </div>\\r\\n        </div>\\r\\n\\r\\n        <!-- Personal Games List -->\\r\\n        <div id="user list" class="col-md-4" style="height:800px;margin-left:8%">\\r\\n            <div class="title"><h2>Personal Game List</h2></div>\\r\\n            <div v-if="user_id==\\\'null\\\'">\\r\\n                Please log in to see your personal list of games.\\r\\n            </div>\\r\\n            <div v-else>\\r\\n                <button v-on:click="goto(\\\'messages\\\')" style="width:250px;background-color:darkslateblue;color:white"><i\\r\\n                        class="fa fa-envelope-o"></i> Messages\\r\\n                </button>\\r\\n                <br><br>\\r\\n\\r\\n                <div v-if="user_game_list_size==0">\\r\\n                    Looks like you haven\\\'t saved any games!\\r\\n                    <br>\\r\\n                    When you save games, it\\\'ll be displayed here!\\r\\n                </div>\\r\\n                <div v-if="user_game_list_size>0"\\r\\n                     style="height:600px;width:325px;overflow:scroll;overflow-y:scroll;overflow-x:hidden;">\\r\\n                    <div v-for="game in user_game_list" class="container">\\r\\n                        <button id="get_game_data_button" v-on:click="get_game_data(game.id)"\\r\\n                                style="background-color:lightblue">\\r\\n                            <table>\\r\\n                                <tbody>\\r\\n                                <tr style="background-color:lightblue;border: 0">\\r\\n                                    <td style="border: 0">\\r\\n                                        <div style="width:50px;"><img v-bind:src="game.thumb" width="100%"\\r\\n                                                                      class="preview_image"/></div>\\r\\n                                    </td>\\r\\n                                    <td style="border: 0">\\r\\n                                        <div style="width:200px;white-space: initial;word-wrap: break-word;">\\r\\n                                            ${game.name}\\r\\n                                        </div>\\r\\n                                    </td>\\r\\n                                </tr>\\r\\n                                </tbody>\\r\\n                            </table>\\r\\n                        </button>\\r\\n                    </div>\\r\\n                </div>\\r\\n            </div>\\r\\n        </div>\\r\\n    </div>\\r\\n\\r\\n\\r\\n    <!-- Messages Section -->\\r\\n    <!-- TODO: Change Clear to Refresh? -->\\r\\n    <div v-if="page==\\\'messages\\\'" class="container" id="messages page" style="height:800px;">\\r\\n        <div id="list of messages" class="col-md-8">\\r\\n            <div v-if="user_id==\\\'null\\\'">\\r\\n                Please log in to see your personal messages.\\r\\n            </div>\\r\\n            <div v-if="friend_name!=\\\'\\\'">\\r\\n                <div class="title"><h2>Messaging ${friend_name}</h2></div>\\r\\n                <div v-if="friend_games_list.length>1">\\r\\n                    Both yours and ${friend_name}\\\'s Personal Game List have these games in common:\\r\\n                    <span v-for="game in friend_games_list">\\r\\n                         ${game}, \\r\\n                    </span>\\r\\n                </div>\\r\\n                <div v-if="friend_games_list.length==1">\\r\\n                    Both yours and ${friend_name}\\\'s Personal Game List have this game in common:\\r\\n                    <span v-for="game in friend_games_list">\\r\\n                         ${game}\\r\\n                    </span>\\r\\n                </div>\\r\\n                <div v-if="friend_games_list.length==0">\\r\\n                    You and ${friend_name} don\\\'t have any games in common. Perhaps you could offer some suggestions?\\r\\n                </div>\\r\\n                <div id="new message section">\\r\\n                    <form action="#" v-on:submit.prevent="add_chat_post()" class="form-horizontal"\\r\\n                          enctype="multipart/form-data" method="post">\\r\\n                        <div class="form-group" id="no_table_post_content">\\r\\n                            <div>\\r\\n                                <input class="form-control string" id="no_table_post_content"\\r\\n                                       v-model="form_post_content" type="text"/>\\r\\n                                <span class="help-block"></span>\\r\\n                            </div>\\r\\n                        </div>\\r\\n                        <div class="new-post-button" id="submit_record__row">\\r\\n                            <div>\\r\\n                                <input class="btn btn-primary" class="post-button" id="add_post_submit" type="submit"\\r\\n                                       value="Post"/>\\r\\n                                <input class="btn btn-warning" class="cancel-button" id="cancel_edit_submit"\\r\\n                                       type="reset" value="Clear"/>\\r\\n\\r\\n                            </div>\\r\\n                        </div>\\r\\n                    </form>\\r\\n                </div>\\r\\n                <!-- Text Boxes -->\\r\\n                <div class="post_content">\\r\\n                    <!-- Hardcoded height, maybe find some way to dynamically set it -->\\r\\n                    <div v-if="friend_chat_list.length!=0"\\r\\n                         style="height:528px;overflow:scroll;overflow-y:scroll;overflow-x:hidden;">\\r\\n                        <div class="post" v-for="post in friend_chat_list">\\r\\n                            ${post.post_content}\\r\\n                            <br>\\r\\n                            <br>\\r\\n                            <div style="color:#0099ff">\\r\\n                                <table>\\r\\n\\r\\n                                    <td v-if="post.belongs_to_user==false" style="width:300px; text-align:left;border: 0;">\\r\\n                                        ${post.post_name}\\r\\n                                    </td>\\r\\n                                    <td v-if="post.belongs_to_user==true" style="width:300px; text-align:left;border: 0"> You</td>\\r\\n                                    <td style="width:300px;border: 0">Sent on ${post.created_on}</td>\\r\\n                                    <!--<td v-if="post.belongs_to_user==true"><button class="fa fa-trash-o" v-on:click="rem_game_post(post.id,game_data.id)"></button></td>-->\\r\\n\\r\\n\\r\\n                                </table>\\r\\n                            </div>\\r\\n                        </div>\\r\\n                    </div>\\r\\n                    <div v-if="friend_chat_list.length==0">\\r\\n                        No messages found. Post a message above to get the ball rolling!\\r\\n                    </div>\\r\\n                </div>\\r\\n            </div>\\r\\n            <div v-if="friend_name==\\\'\\\'">\\r\\n                <div class="title"><h2>Game Day Messages </h2></div>\\r\\n                Select a friend to start sending messages.\\r\\n            </div>\\r\\n        </div>\\r\\n        <div id="switch between messages" class="col-md-4">\\r\\n            <div class="title"><h2>Message List</h2></div>\\r\\n            <div v-if="user_id==\\\'null\\\'" style="height:400px;">\\r\\n                Please log in to see your personal list of messages.\\r\\n            </div>\\r\\n            <div v-else>\\r\\n                <button class="btn orange" v-on:click="goto(\\\'calendar\\\')"\\r\\n                        style="background-color:darkslateblue;color:white"><i class="fa fa-calendar"></i> Return to Calendar\\r\\n                </button>\\r\\n                <br><br>\\r\\n\\r\\n                <div v-if="friend_email_list.length==0">\\r\\n                    Looks like you don\\\'t have any ongoing messages (yet)! Start up a chat with someone on a game\\\'s page!\\r\\n                </div>\\r\\n                <div v-if="friend_email_list.length>0"\\r\\n                     style="height:600px;width:300px;overflow:scroll;overflow-y:scroll;overflow-x:hidden;">\\r\\n                    <div v-for="email in friend_email_list" class="container">\\r\\n                        <div class="col-md-8 friend_list" style="padding:4px">\\r\\n                            <button class="fa fa-envelope" id="get_chat_button" v-on:click="get_chat(email.email)"\\r\\n                                    style="background-color:orange;color:white;"></button>\\r\\n                            ${email.name}\\r\\n\\r\\n                        </div>\\r\\n                    </div>\\r\\n                </div>\\r\\n            </div>\\r\\n        </div>\\r\\n    </div>\\r\\n\\r\\n\\r\\n    <!-- News Section -->\\r\\n    <div class="title" style="margin-top:12%;margin-left:110px"><h2>Daily Gaming News</h2></div>\\r\\n    <div id="Gaming News" class="gaming news">\\r\\n        <span v-if="gaming_news_response==\\\'ok\\\'">\\r\\n            <div v-for="story in gaming_news" class="container">\\r\\n                <table style="table-layout:fixed">\\r\\n                    <tr>\\r\\n                    <td><div class="col-md-2 news_image">\\r\\n                        <img v-bind:src="story.preview" width="200px" height="100px" class="preview_image"/>\\r\\n                    </div></td>\\r\\n                    <td width="650px"><div class="col-md-10 news_title ">\\r\\n                        <h4><a v-bind:href="story.url" target="_blank">${story.title}</a></h4>\\r\\n                    </div></td>\\r\\n                    </tr>\\r\\n                </table>\\r\\n            </div>\\r\\n        </span>\\r\\n        <span v-if="gaming_news_response==\\\'error\\\'" style="margin-left:112px">\\r\\n            Sorry, we cannot retrieve gaming news right now.\\r\\n        </span>\\r\\n    </div>\\r\\n    <br>\\r\\n    <br>\\r\\n\\r\\n    <script src="\', escape=False)\nresponse.write(URL(\'static\', \'js/default_index.js\'))\nresponse.write(\'"></script>\\r\\n</div>\\r\\n\', escape=False)\nresponse.write(\'\\r\\n        \', escape=False)\nresponse.write(\'\\r\\n      </div>\\r\\n\\r\\n      \', escape=False)\nif right_sidebar_enabled:\n    response.write(\'\\r\\n        <div class="col-md-3">\\r\\n            \', escape=False)\n    response.write(\'\\r\\n            <h3>Right Sidebar</h3>\\r\\n            <p></p>\\r\\n            \', escape=False)\n    response.write(\'\\r\\n        </div>\\r\\n      \', escape=False)\n    pass\nresponse.write(\'\\r\\n\\r\\n    </div>\\r\\n\\r\\n    \', escape=False)\nresponse.write(\' <!-- this is default footer -->\\r\\n    <footer class="footer">\\r\\n      <div class="container-fluid">\\r\\n        <div class="copyright pull-left">\', escape=False)\nresponse.write(T(\'Copyright\'))\nresponse.write(\' &#169; \', escape=False)\nresponse.write(request.now.year)\nresponse.write(\'</div>\\r\\n          <div id="poweredBy" class="pull-right">\\r\\n            \', escape=False)\nresponse.write(T(\'Powered by\'))\nresponse.write(\'\\r\\n            <a href="http://www.web2py.com/">web2py</a>\\r\\n          </div>\\r\\n      </div>\\r\\n    </footer>\\r\\n    \', escape=False)\nresponse.write(\'\\r\\n    <!-- The javascript =============================== -->\\r\\n    <script src="\', escape=False)\nresponse.write(URL(\'static\',\'js/bootstrap.min.js\'))\nresponse.write(\'"></script>\\r\\n    <script src="\', escape=False)\nresponse.write(URL(\'static\',\'js/web2py-bootstrap3.js\'))\nresponse.write(\'"></script>\\r\\n    \', escape=False)\nresponse.write(\'\\r\\n    \', escape=False)\nif response.google_analytics_id:\n    response.write(\'\\r\\n    <!-- Analytics ==================================== -->\\r\\n    <script src="\', escape=False)\n    response.write(URL(\'static\',\'js/analytics.min.js\'))\n    response.write(\'"></script>\\r\\n    <script type="text/javascript">\\r\\n      analytics.initialize({\\r\\n      \\\'Google Analytics\\\':{trackingId:\\\'\', escape=False)\n    response.write(response.google_analytics_id)\n    response.write("\'}\\r\\n      });\\r\\n    </script>\\r\\n    ", escape=False)\n    pass\nresponse.write(\'\\r\\n    <!-- Share ============================y============ -->\\r\\n    <script src="\', escape=False)\nresponse.write(URL(\'static\',\'js/share.js\',vars=dict(static=URL(\'static\',\'images\'))))\nresponse.write(\'"></script>\\r\\n  </body>\\r\\n</html>\\r\\n\', escape=False)'
p7
sS'snapshot'
p8
(dp9
S'exception'
p10
(dp11
S'__hash__'
p12
S"<method-wrapper '__hash__' of exceptions.NameError object>"
p13
sS'__setattr__'
p14
S"<method-wrapper '__setattr__' of exceptions.NameError object>"
p15
sS'__reduce_ex__'
p16
S'<built-in method __reduce_ex__ of exceptions.NameError object>'
p17
sS'__getslice__'
p18
S"<method-wrapper '__getslice__' of exceptions.NameError object>"
p19
sS'__getitem__'
p20
S"<method-wrapper '__getitem__' of exceptions.NameError object>"
p21
sS'__setstate__'
p22
S'<built-in method __setstate__ of exceptions.NameError object>'
p23
sS'__reduce__'
p24
S'<built-in method __reduce__ of exceptions.NameError object>'
p25
sS'__str__'
p26
S"<method-wrapper '__str__' of exceptions.NameError object>"
p27
sS'__format__'
p28
S'<built-in method __format__ of exceptions.NameError object>'
p29
sS'__getattribute__'
p30
S"<method-wrapper '__getattribute__' of exceptions.NameError object>"
p31
sS'__class__'
p32
S"<type 'exceptions.NameError'>"
p33
sS'__unicode__'
p34
S'<built-in method __unicode__ of exceptions.NameError object>'
p35
sS'__delattr__'
p36
S"<method-wrapper '__delattr__' of exceptions.NameError object>"
p37
sS'__subclasshook__'
p38
S'<built-in method __subclasshook__ of type object>'
p39
sS'__repr__'
p40
S"<method-wrapper '__repr__' of exceptions.NameError object>"
p41
sS'args'
p42
S'("name \'selected\' is not defined",)'
p43
sS'__dict__'
p44
S'{}'
p45
sS'__sizeof__'
p46
S'<built-in method __sizeof__ of exceptions.NameError object>'
p47
sS'__doc__'
p48
S"'Name not found globally.'"
p49
sS'__init__'
p50
S"<method-wrapper '__init__' of exceptions.NameError object>"
p51
sS'__new__'
p52
S'<built-in method __new__ of type object>'
p53
ssS'evalue'
p54
S"name 'selected' is not defined"
p55
sS'request'
p56
cgluon.html
XML_unpickle
p57
(S's\x80a\x00\x00<div><table><tr><td style="font-weight:bold;vertical-align:top;">ajax</td><td style="vertical-align:top;">:</td><td><div>False</div></td></tr><tr><td style="font-weight:bold;vertical-align:top;">application</td><td style="vertical-align:top;">:</td><td><div>GameDayCalendar</div></td></tr><tr><td style="font-weight:bold;vertical-align:top;">args</td><td style="vertical-align:top;">:</td><td><div><table></table></div></td></tr><tr><td style="font-weight:bold;vertical-align:top;">cid</td><td style="vertical-align:top;">:</td><td><div>None</div></td></tr><tr><td style="font-weight:bold;vertical-align:top;">client</td><td style="vertical-align:top;">:</td><td><div>127.0.0.1</div></td></tr><tr><td style="font-weight:bold;vertical-align:top;">controller</td><td style="vertical-align:top;">:</td><td><div>default</div></td></tr><tr><td style="font-weight:bold;vertical-align:top;">cookies</td><td style="vertical-align:top;">:</td><td><div><table><tr><td style="font-weight:bold;vertical-align:top;">session_id_admin</td><td style="vertical-align:top;">:</td><td><div>127.0.0.1-f76d2089-1fd2-4e79-a7cc-b2c94564b7bb<table><tr><td style="font-weight:bold;vertical-align:top;">comment</td><td style="vertical-align:top;">:</td><td><div></div></td></tr><tr><td style="font-weight:bold;vertical-align:top;">domain</td><td style="vertical-align:top;">:</td><td><div></div></td></tr><tr><td style="font-weight:bold;vertical-align:top;">expires</td><td style="vertical-align:top;">:</td><td><div></div></td></tr><tr><td style="font-weight:bold;vertical-align:top;">httponly</td><td style="vertical-align:top;">:</td><td><div></div></td></tr><tr><td style="font-weight:bold;vertical-align:top;">max-age</td><td style="vertical-align:top;">:</td><td><div></div></td></tr><tr><td style="font-weight:bold;vertical-align:top;">path</td><td style="vertical-align:top;">:</td><td><div></div></td></tr><tr><td style="font-weight:bold;vertical-align:top;">secure</td><td style="vertical-align:top;">:</td><td><div></div></td></tr><tr><td style="font-weight:bold;vertical-align:top;">version</td><td style="vertical-align:top;">:</td><td><div></div></td></tr></table></div></td></tr><tr><td style="font-weight:bold;vertical-align:top;">session_id_gamedaycalendar</td><td style="vertical-align:top;">:</td><td><div>9:5ad0c2c2-7cf6-4967-9c92-8d89026e2325<table><tr><td style="font-weight:bold;vertical-align:top;">comment</td><td style="vertical-align:top;">:</td><td><div></div></td></tr><tr><td style="font-weight:bold;vertical-align:top;">domain</td><td style="vertical-align:top;">:</td><td><div></div></td></tr><tr><td style="font-weight:bold;vertical-align:top;">expires</td><td style="vertical-align:top;">:</td><td><div></div></td></tr><tr><td style="font-weight:bold;vertical-align:top;">httponly</td><td style="vertical-align:top;">:</td><td><div></div></td></tr><tr><td style="font-weight:bold;vertical-align:top;">max-age</td><td style="vertical-align:top;">:</td><td><div></div></td></tr><tr><td style="font-weight:bold;vertical-align:top;">path</td><td style="vertical-align:top;">:</td><td><div></div></td></tr><tr><td style="font-weight:bold;vertical-align:top;">secure</td><td style="vertical-align:top;">:</td><td><div></div></td></tr><tr><td style="font-weight:bold;vertical-align:top;">version</td><td style="vertical-align:top;">:</td><td><div></div></td></tr></table></div></td></tr><tr><td style="font-weight:bold;vertical-align:top;">session_id_welcome</td><td style="vertical-align:top;">:</td><td><div>127.0.0.1-2d6091bc-04a2-4dc9-9eff-9dd272b22722<table><tr><td style="font-weight:bold;vertical-align:top;">comment</td><td style="vertical-align:top;">:</td><td><div></div></td></tr><tr><td style="font-weight:bold;vertical-align:top;">domain</td><td style="vertical-align:top;">:</td><td><div></div></td></tr><tr><td style="font-weight:bold;vertical-align:top;">expires</td><td style="vertical-align:top;">:</td><td><div></div></td></tr><tr><td style="font-weight:bold;vertical-align:top;">httponly</td><td style="vertical-align:top;">:</td><td><div></div></td></tr><tr><td style="font-weight:bold;vertical-align:top;">max-age</td><td style="vertical-align:top;">:</td><td><div></div></td></tr><tr><td style="font-weight:bold;vertical-align:top;">path</td><td style="vertical-align:top;">:</td><td><div></div></td></tr><tr><td style="font-weight:bold;vertical-align:top;">secure</td><td style="vertical-align:top;">:</td><td><div></div></td></tr><tr><td style="font-weight:bold;vertical-align:top;">version</td><td style="vertical-align:top;">:</td><td><div></div></td></tr></table></div></td></tr></table></div></td></tr><tr><td style="font-weight:bold;vertical-align:top;">env</td><td style="vertical-align:top;">:</td><td><div><table><tr><td style="font-weight:bold;vertical-align:top;">HTTP_ACCEPT</td><td style="vertical-align:top;">:</td><td><div>text/html,application/xhtml+xml,application/xml;q=0.9,image/webp,*/*;q=0.8</div></td></tr><tr><td style="font-weight:bold;vertical-align:top;">HTTP_ACCEPT_ENCODING</td><td style="vertical-align:top;">:</td><td><div>gzip, deflate, sdch, br</div></td></tr><tr><td style="font-weight:bold;vertical-align:top;">HTTP_ACCEPT_LANGUAGE</td><td style="vertical-align:top;">:</td><td><div>en-US,en;q=0.8</div></td></tr><tr><td style="font-weight:bold;vertical-align:top;">HTTP_CACHE_CONTROL</td><td style="vertical-align:top;">:</td><td><div>max-age=0</div></td></tr><tr><td style="font-weight:bold;vertical-align:top;">HTTP_CONNECTION</td><td style="vertical-align:top;">:</td><td><div>keep-alive</div></td></tr><tr><td style="font-weight:bold;vertical-align:top;">HTTP_COOKIE</td><td style="vertical-align:top;">:</td><td><div>session_id_welcome=127.0.0.1-2d6091bc-04a2-4dc9-9eff-9dd272b22722; session_id_gamedaycalendar=&quot;9:5ad0c2c2-7cf6-4967-9c92-8d89026e2325&quot;; session_id_admin=127.0.0.1-f76d2089-1fd2-4e79-a7cc-b2c94564b7bb</div></td></tr><tr><td style="font-weight:bold;vertical-align:top;">HTTP_HOST</td><td style="vertical-align:top;">:</td><td><div>127.0.0.1:8000</div></td></tr><tr><td style="font-weight:bold;vertical-align:top;">HTTP_REFERER</td><td style="vertical-align:top;">:</td><td><div>http://127.0.0.1:8000/GameDayCalendar/default/user/register?_next=%2FGameDayCalendar%2Fdefault%2Findex</div></td></tr><tr><td style="font-weight:bold;vertical-align:top;">HTTP_UPGRADE_INSECURE_REQUESTS</td><td style="vertical-align:top;">:</td><td><div>1</div></td></tr><tr><td style="font-weight:bold;vertical-align:top;">HTTP_USER_AGENT</td><td style="vertical-align:top;">:</td><td><div>Mozilla/5.0 (Windows NT 6.3; WOW64) AppleWebKit/537.36 (KHTML, like Gecko) Chrome/54.0.2840.99 Safari/537.36</div></td></tr><tr><td style="font-weight:bold;vertical-align:top;">PATH_INFO</td><td style="vertical-align:top;">:</td><td><div>/GameDayCalendar/default/index</div></td></tr><tr><td style="font-weight:bold;vertical-align:top;">QUERY_STRING</td><td style="vertical-align:top;">:</td><td><div></div></td></tr><tr><td style="font-weight:bold;vertical-align:top;">REMOTE_ADDR</td><td style="vertical-align:top;">:</td><td><div>127.0.0.1</div></td></tr><tr><td style="font-weight:bold;vertical-align:top;">REMOTE_PORT</td><td style="vertical-align:top;">:</td><td><div>55926</div></td></tr><tr><td style="font-weight:bold;vertical-align:top;">REQUEST_METHOD</td><td style="vertical-align:top;">:</td><td><div>GET</div></td></tr><tr><td style="font-weight:bold;vertical-align:top;">SCRIPT_NAME</td><td style="vertical-align:top;">:</td><td><div></div></td></tr><tr><td style="font-weight:bold;vertical-align:top;">SERVER_NAME</td><td style="vertical-align:top;">:</td><td><div>SAB</div></td></tr><tr><td style="font-weight:bold;vertical-align:top;">SERVER_PORT</td><td style="vertical-align:top;">:</td><td><div>8000</div></td></tr><tr><td style="font-weight:bold;vertical-align:top;">SERVER_PROTOCOL</td><td style="vertical-align:top;">:</td><td><div>HTTP/1.1</div></td></tr><tr><td style="font-weight:bold;vertical-align:top;">SERVER_SOFTWARE</td><td style="vertical-align:top;">:</td><td><div>Rocket 1.2.6</div></td></tr><tr><td style="font-weight:bold;vertical-align:top;">app_folders</td><td style="vertical-align:top;">:</td><td><div>set([&#x27;C:\\\\Users\\\\xsarah\\\\Desktop\\\\xborlandax\\\\University\\\\cs183\\\\web2py\\\\applications\\\\GameDayCalendar\\\\&#x27;, &#x27;C:\\\\Users\\\\xsarah\\\\Desktop\\\\xborlandax\\\\University\\\\cs183\\\\web2py\\\\applications\\\\admin\\\\&#x27;, &#x27;C:\\\\Users\\\\xsarah\\\\Desktop\\\\xborlandax\\\\University\\\\cs183\\\\web2py\\\\applications\\\\welcome\\\\&#x27;])</div></td></tr><tr><td style="font-weight:bold;vertical-align:top;">applications_parent</td><td style="vertical-align:top;">:</td><td><div>C:\\Users\\xsarah\\Desktop\\xborlandax\\University\\cs183\\web2py</div></td></tr><tr><td style="font-weight:bold;vertical-align:top;">cmd_args</td><td style="vertical-align:top;">:</td><td><div><table></table></div></td></tr><tr><td style="font-weight:bold;vertical-align:top;">cmd_options</td><td style="vertical-align:top;">:</td><td><div>&lt;Values at 0x3da2fa8: {&#x27;verbose&#x27;: False, &#x27;ip&#x27;: &#x27;127.0.0.1&#x27;, &#x27;debuglevel&#x27;: 30, &#x27;with_scheduler&#x27;: False, &#x27;shutdown_timeout&#x27;: 5, &#x27;taskbar&#x27;: False, &#x27;with_coverage&#x27;: False, &#x27;pid_filename&#x27;: &#x27;httpserver.pid&#x27;, &#x27;maxthreads&#x27;: None, &#x27;softcron&#x27;: False, &#x27;server_name&#x27;: &#x27;SAB&#x27;, &#x27;bpython&#x27;: False, &#x27;nogui&#x27;: False, &#x27;port&#x27;: 8000, &#x27;print_errors&#x27;: False, &#x27;extcron&#x27;: False, &#x27;runcron&#x27;: False, &#x27;run_system_tests&#x27;: False, &#x27;test&#x27;: None, &#x27;folder&#x27;: &#x27;C:\\\\Users\\\\xsarah\\\\Desktop\\\\xborlandax\\\\University\\\\cs183\\\\web2py&#x27;, &#x27;config&#x27;: &#x27;&#x27;, &#x27;minthreads&#x27;: None, &#x27;shell&#x27;: None, &#x27;run&#x27;: &#x27;&#x27;, &#x27;log_filename&#x27;: &#x27;httpserver.log&#x27;, &#x27;profiler_dir&#x27;: None, &#x27;args&#x27;: [&#x27;&#x27;], &#x27;socket_timeout&#x27;: 5, &#x27;ssl_ca_certificate&#x27;: None, &#x27;scheduler&#x27;: None, &#x27;interfaces&#x27;: None, &#x27;ssl_private_key&#x27;: &#x27;&#x27;, &#x27;gae&#x27;: None, &#x27;password&#x27;: &#x27;******&#x27;, &#x27;request_queue_size&#x27;: 5, &#x27;ssl_certificate&#x27;: &#x27;&#x27;, &#x27;cronjob&#x27;: False, &#x27;numthreads&#x27;: None, &#x27;quiet&#x27;: False, &#x27;import_models&#x27;: False, &#x27;timeout&#x27;: 10, &#x27;plain&#x27;: False, &#x27;nobanner&#x27;: False}&gt;</div></td></tr><tr><td style="font-weight:bold;vertical-align:top;">db_sessions</td><td style="vertical-align:top;">:</td><td><div>set([&#x27;GameDayCalendar&#x27;])</div></td></tr><tr><td style="font-weight:bold;vertical-align:top;">debugging</td><td style="vertical-align:top;">:</td><td><div>False</div></td></tr><tr><td style="font-weight:bold;vertical-align:top;">gluon_parent</td><td style="vertical-align:top;">:</td><td><div>C:\\Users\\xsarah\\Desktop\\xborlandax\\University\\cs183\\web2py</div></td></tr><tr><td style="font-weight:bold;vertical-align:top;">http_accept</td><td style="vertical-align:top;">:</td><td><div>text/html,application/xhtml+xml,application/xml;q=0.9,image/webp,*/*;q=0.8</div></td></tr><tr><td style="font-weight:bold;vertical-align:top;">http_accept_encoding</td><td style="vertical-align:top;">:</td><td><div>gzip, deflate, sdch, br</div></td></tr><tr><td style="font-weight:bold;vertical-align:top;">http_accept_language</td><td style="vertical-align:top;">:</td><td><div>en-US,en;q=0.8</div></td></tr><tr><td style="font-weight:bold;vertical-align:top;">http_cache_control</td><td style="vertical-align:top;">:</td><td><div>max-age=0</div></td></tr><tr><td style="font-weight:bold;vertical-align:top;">http_connection</td><td style="vertical-align:top;">:</td><td><div>keep-alive</div></td></tr><tr><td style="font-weight:bold;vertical-align:top;">http_cookie</td><td style="vertical-align:top;">:</td><td><div>session_id_welcome=127.0.0.1-2d6091bc-04a2-4dc9-9eff-9dd272b22722; session_id_gamedaycalendar=&quot;9:5ad0c2c2-7cf6-4967-9c92-8d89026e2325&quot;; session_id_admin=127.0.0.1-f76d2089-1fd2-4e79-a7cc-b2c94564b7bb</div></td></tr><tr><td style="font-weight:bold;vertical-align:top;">http_host</td><td style="vertical-align:top;">:</td><td><div>127.0.0.1:8000</div></td></tr><tr><td style="font-weight:bold;vertical-align:top;">http_referer</td><td style="vertical-align:top;">:</td><td><div>http://127.0.0.1:8000/GameDayCalendar/default/user/register?_next=%2FGameDayCalendar%2Fdefault%2Findex</div></td></tr><tr><td style="font-weight:bold;vertical-align:top;">http_upgrade_insecure_requests</td><td style="vertical-align:top;">:</td><td><div>1</div></td></tr><tr><td style="font-weight:bold;vertical-align:top;">http_user_agent</td><td style="vertical-align:top;">:</td><td><div>Mozilla/5.0 (Windows NT 6.3; WOW64) AppleWebKit/537.36 (KHTML, like Gecko) Chrome/54.0.2840.99 Safari/537.36</div></td></tr><tr><td style="font-weight:bold;vertical-align:top;">is_jython</td><td style="vertical-align:top;">:</td><td><div>False</div></td></tr><tr><td style="font-weight:bold;vertical-align:top;">is_pypy</td><td style="vertical-align:top;">:</td><td><div>False</div></td></tr><tr><td style="font-weight:bold;vertical-align:top;">is_source</td><td style="vertical-align:top;">:</td><td><div>True</div></td></tr><tr><td style="font-weight:bold;vertical-align:top;">local_hosts</td><td style="vertical-align:top;">:</td><td><div><table><tr><td><div>192.168.1.27</div></td></tr><tr><td><div>SAB</div></td></tr><tr><td><div>::ffff:127.0.0.1</div></td></tr><tr><td><div>::1</div></td></tr><tr><td><div>fe80::f907:4247:a6c1:59ac%8</div></td></tr><tr><td><div>fe80::347c:1dac:9d07:30a7%5</div></td></tr><tr><td><div>2001:0:d58:1ef1:347c:1dac:9d07:30a7</div></td></tr><tr><td><div>fe80::bceb:fcc3:2a79:f927%3</div></td></tr><tr><td><div>127.0.0.1</div></td></tr><tr><td><div>192.168.56.1</div></td></tr></table></div></td></tr><tr><td style="font-weight:bold;vertical-align:top;">path_info</td><td style="vertical-align:top;">:</td><td><div>/GameDayCalendar/default/index</div></td></tr><tr><td style="font-weight:bold;vertical-align:top;">query_string</td><td style="vertical-align:top;">:</td><td><div></div></td></tr><tr><td style="font-weight:bold;vertical-align:top;">remote_addr</td><td style="vertical-align:top;">:</td><td><div>127.0.0.1</div></td></tr><tr><td style="font-weight:bold;vertical-align:top;">remote_port</td><td style="vertical-align:top;">:</td><td><div>55926</div></td></tr><tr><td style="font-weight:bold;vertical-align:top;">request_method</td><td style="vertical-align:top;">:</td><td><div>GET</div></td></tr><tr><td style="font-weight:bold;vertical-align:top;">request_uri</td><td style="vertical-align:top;">:</td><td><div>/GameDayCalendar/default/index</div></td></tr><tr><td style="font-weight:bold;vertical-align:top;">script_name</td><td style="vertical-align:top;">:</td><td><div></div></td></tr><tr><td style="font-weight:bold;vertical-align:top;">server_name</td><td style="vertical-align:top;">:</td><td><div>SAB</div></td></tr><tr><td style="font-weight:bold;vertical-align:top;">server_port</td><td style="vertical-align:top;">:</td><td><div>8000</div></td></tr><tr><td style="font-weight:bold;vertical-align:top;">server_protocol</td><td style="vertical-align:top;">:</td><td><div>HTTP/1.1</div></td></tr><tr><td style="font-weight:bold;vertical-align:top;">server_software</td><td style="vertical-align:top;">:</td><td><div>Rocket 1.2.6</div></td></tr><tr><td style="font-weight:bold;vertical-align:top;">web2py_path</td><td style="vertical-align:top;">:</td><td><div>C:\\Users\\xsarah\\Desktop\\xborlandax\\University\\cs183\\web2py</div></td></tr><tr><td style="font-weight:bold;vertical-align:top;">web2py_version</td><td style="vertical-align:top;">:</td><td><div>2.14.6-stable+timestamp.2016.05.10.00.21.47</div></td></tr><tr><td style="font-weight:bold;vertical-align:top;">wsgi.errors</td><td style="vertical-align:top;">:</td><td><div>&lt;open file &#x27;&lt;stderr&gt;&#x27;, mode &#x27;w&#x27; at 0x015ED0D0&gt;</div></td></tr><tr><td style="font-weight:bold;vertical-align:top;">wsgi.file_wrapper</td><td style="vertical-align:top;">:</td><td><div>&lt;class wsgiref.util.FileWrapper at 0x03D62B58&gt;</div></td></tr><tr><td style="font-weight:bold;vertical-align:top;">wsgi.input</td><td style="vertical-align:top;">:</td><td><div>&lt;socket._fileobject object at 0x0A6117B0&gt;</div></td></tr><tr><td style="font-weight:bold;vertical-align:top;">wsgi.multiprocess</td><td style="vertical-align:top;">:</td><td><div>False</div></td></tr><tr><td style="font-weight:bold;vertical-align:top;">wsgi.multithread</td><td style="vertical-align:top;">:</td><td><div>True</div></td></tr><tr><td style="font-weight:bold;vertical-align:top;">wsgi.run_once</td><td style="vertical-align:top;">:</td><td><div>False</div></td></tr><tr><td style="font-weight:bold;vertical-align:top;">wsgi.url_scheme</td><td style="vertical-align:top;">:</td><td><div>http</div></td></tr><tr><td style="font-weight:bold;vertical-align:top;">wsgi.version</td><td style="vertical-align:top;">:</td><td><div><table><tr><td><div>1</div></td></tr><tr><td><div>0</div></td></tr></table></div></td></tr><tr><td style="font-weight:bold;vertical-align:top;">wsgi_errors</td><td style="vertical-align:top;">:</td><td><div>&lt;open file &#x27;&lt;stderr&gt;&#x27;, mode &#x27;w&#x27; at 0x015ED0D0&gt;</div></td></tr><tr><td style="font-weight:bold;vertical-align:top;">wsgi_file_wrapper</td><td style="vertical-align:top;">:</td><td><div>&lt;class wsgiref.util.FileWrapper at 0x03D62B58&gt;</div></td></tr><tr><td style="font-weight:bold;vertical-align:top;">wsgi_input</td><td style="vertical-align:top;">:</td><td><div>&lt;socket._fileobject object at 0x0A6117B0&gt;</div></td></tr><tr><td style="font-weight:bold;vertical-align:top;">wsgi_multiprocess</td><td style="vertical-align:top;">:</td><td><div>False</div></td></tr><tr><td style="font-weight:bold;vertical-align:top;">wsgi_multithread</td><td style="vertical-align:top;">:</td><td><div>True</div></td></tr><tr><td style="font-weight:bold;vertical-align:top;">wsgi_run_once</td><td style="vertical-align:top;">:</td><td><div>False</div></td></tr><tr><td style="font-weight:bold;vertical-align:top;">wsgi_url_scheme</td><td style="vertical-align:top;">:</td><td><div>http</div></td></tr><tr><td style="font-weight:bold;vertical-align:top;">wsgi_version</td><td style="vertical-align:top;">:</td><td><div><table><tr><td><div>1</div></td></tr><tr><td><div>0</div></td></tr></table></div></td></tr></table></div></td></tr><tr><td style="font-weight:bold;vertical-align:top;">extension</td><td style="vertical-align:top;">:</td><td><div>html</div></td></tr><tr><td style="font-weight:bold;vertical-align:top;">folder</td><td style="vertical-align:top;">:</td><td><div>C:\\Users\\xsarah\\Desktop\\xborlandax\\University\\cs183\\web2py\\applications\\GameDayCalendar\\</div></td></tr><tr><td style="font-weight:bold;vertical-align:top;">function</td><td style="vertical-align:top;">:</td><td><div>index</div></td></tr><tr><td style="font-weight:bold;vertical-align:top;">global_settings</td><td style="vertical-align:top;">:</td><td><div><table><tr><td style="font-weight:bold;vertical-align:top;">app_folders</td><td style="vertical-align:top;">:</td><td><div>set([&#x27;C:\\\\Users\\\\xsarah\\\\Desktop\\\\xborlandax\\\\University\\\\cs183\\\\web2py\\\\applications\\\\GameDayCalendar\\\\&#x27;, &#x27;C:\\\\Users\\\\xsarah\\\\Desktop\\\\xborlandax\\\\University\\\\cs183\\\\web2py\\\\applications\\\\admin\\\\&#x27;, &#x27;C:\\\\Users\\\\xsarah\\\\Desktop\\\\xborlandax\\\\University\\\\cs183\\\\web2py\\\\applications\\\\welcome\\\\&#x27;])</div></td></tr><tr><td style="font-weight:bold;vertical-align:top;">applications_parent</td><td style="vertical-align:top;">:</td><td><div>C:\\Users\\xsarah\\Desktop\\xborlandax\\University\\cs183\\web2py</div></td></tr><tr><td style="font-weight:bold;vertical-align:top;">cmd_args</td><td style="vertical-align:top;">:</td><td><div><table></table></div></td></tr><tr><td style="font-weight:bold;vertical-align:top;">cmd_options</td><td style="vertical-align:top;">:</td><td><div>&lt;Values at 0x3da2fa8: {&#x27;verbose&#x27;: False, &#x27;ip&#x27;: &#x27;127.0.0.1&#x27;, &#x27;debuglevel&#x27;: 30, &#x27;with_scheduler&#x27;: False, &#x27;shutdown_timeout&#x27;: 5, &#x27;taskbar&#x27;: False, &#x27;with_coverage&#x27;: False, &#x27;pid_filename&#x27;: &#x27;httpserver.pid&#x27;, &#x27;maxthreads&#x27;: None, &#x27;softcron&#x27;: False, &#x27;server_name&#x27;: &#x27;SAB&#x27;, &#x27;bpython&#x27;: False, &#x27;nogui&#x27;: False, &#x27;port&#x27;: 8000, &#x27;print_errors&#x27;: False, &#x27;extcron&#x27;: False, &#x27;runcron&#x27;: False, &#x27;run_system_tests&#x27;: False, &#x27;test&#x27;: None, &#x27;folder&#x27;: &#x27;C:\\\\Users\\\\xsarah\\\\Desktop\\\\xborlandax\\\\University\\\\cs183\\\\web2py&#x27;, &#x27;config&#x27;: &#x27;&#x27;, &#x27;minthreads&#x27;: None, &#x27;shell&#x27;: None, &#x27;run&#x27;: &#x27;&#x27;, &#x27;log_filename&#x27;: &#x27;httpserver.log&#x27;, &#x27;profiler_dir&#x27;: None, &#x27;args&#x27;: [&#x27;&#x27;], &#x27;socket_timeout&#x27;: 5, &#x27;ssl_ca_certificate&#x27;: None, &#x27;scheduler&#x27;: None, &#x27;interfaces&#x27;: None, &#x27;ssl_private_key&#x27;: &#x27;&#x27;, &#x27;gae&#x27;: None, &#x27;password&#x27;: &#x27;******&#x27;, &#x27;request_queue_size&#x27;: 5, &#x27;ssl_certificate&#x27;: &#x27;&#x27;, &#x27;cronjob&#x27;: False, &#x27;numthreads&#x27;: None, &#x27;quiet&#x27;: False, &#x27;import_models&#x27;: False, &#x27;timeout&#x27;: 10, &#x27;plain&#x27;: False, &#x27;nobanner&#x27;: False}&gt;</div></td></tr><tr><td style="font-weight:bold;vertical-align:top;">db_sessions</td><td style="vertical-align:top;">:</td><td><div>set([&#x27;GameDayCalendar&#x27;])</div></td></tr><tr><td style="font-weight:bold;vertical-align:top;">debugging</td><td style="vertical-align:top;">:</td><td><div>False</div></td></tr><tr><td style="font-weight:bold;vertical-align:top;">gluon_parent</td><td style="vertical-align:top;">:</td><td><div>C:\\Users\\xsarah\\Desktop\\xborlandax\\University\\cs183\\web2py</div></td></tr><tr><td style="font-weight:bold;vertical-align:top;">is_jython</td><td style="vertical-align:top;">:</td><td><div>False</div></td></tr><tr><td style="font-weight:bold;vertical-align:top;">is_pypy</td><td style="vertical-align:top;">:</td><td><div>False</div></td></tr><tr><td style="font-weight:bold;vertical-align:top;">is_source</td><td style="vertical-align:top;">:</td><td><div>True</div></td></tr><tr><td style="font-weight:bold;vertical-align:top;">local_hosts</td><td style="vertical-align:top;">:</td><td><div><table><tr><td><div>192.168.1.27</div></td></tr><tr><td><div>SAB</div></td></tr><tr><td><div>::ffff:127.0.0.1</div></td></tr><tr><td><div>::1</div></td></tr><tr><td><div>fe80::f907:4247:a6c1:59ac%8</div></td></tr><tr><td><div>fe80::347c:1dac:9d07:30a7%5</div></td></tr><tr><td><div>2001:0:d58:1ef1:347c:1dac:9d07:30a7</div></td></tr><tr><td><div>fe80::bceb:fcc3:2a79:f927%3</div></td></tr><tr><td><div>127.0.0.1</div></td></tr><tr><td><div>192.168.56.1</div></td></tr></table></div></td></tr><tr><td style="font-weight:bold;vertical-align:top;">web2py_version</td><td style="vertical-align:top;">:</td><td><div>2.14.6-stable+timestamp.2016.05.10.00.21.47</div></td></tr></table></div></td></tr><tr><td style="font-weight:bold;vertical-align:top;">is_https</td><td style="vertical-align:top;">:</td><td><div>False</div></td></tr><tr><td style="font-weight:bold;vertical-align:top;">is_local</td><td style="vertical-align:top;">:</td><td><div>True</div></td></tr><tr><td style="font-weight:bold;vertical-align:top;">is_restful</td><td style="vertical-align:top;">:</td><td><div>False</div></td></tr><tr><td style="font-weight:bold;vertical-align:top;">is_scheduler</td><td style="vertical-align:top;">:</td><td><div>False</div></td></tr><tr><td style="font-weight:bold;vertical-align:top;">is_shell</td><td style="vertical-align:top;">:</td><td><div>False</div></td></tr><tr><td style="font-weight:bold;vertical-align:top;">now</td><td style="vertical-align:top;">:</td><td><div>datetime.datetime(2016, 12, 5, 22, 33, 29, 221000)</div></td></tr><tr><td style="font-weight:bold;vertical-align:top;">raw_args</td><td style="vertical-align:top;">:</td><td><div></div></td></tr><tr><td style="font-weight:bold;vertical-align:top;">raw_extension</td><td style="vertical-align:top;">:</td><td><div>None</div></td></tr><tr><td style="font-weight:bold;vertical-align:top;">url</td><td style="vertical-align:top;">:</td><td><div>/GameDayCalendar/default/index</div></td></tr><tr><td style="font-weight:bold;vertical-align:top;">utcnow</td><td style="vertical-align:top;">:</td><td><div>datetime.datetime(2016, 12, 6, 6, 33, 29, 221000)</div></td></tr><tr><td style="font-weight:bold;vertical-align:top;">wsgi</td><td style="vertical-align:top;">:</td><td><div>&lt;gluon.main.LazyWSGI object at 0x0A0BB050&gt;</div></td></tr></table></div>'
tRp58
sS'frames'
p59
(lp60
(dp61
S'file'
p62
S'C:\\Users\\xsarah\\Desktop\\xborlandax\\University\\cs183\\web2py\\gluon\\restricted.py'
p63
sS'dump'
p64
(dp65
S'environment'
p66
S"{'A': <class 'gluon.html.A'>, 'ANY_OF': <class 'gluon.validators.ANY_OF'>, 'ASSIGNJS': <function ASSIGNJS>, 'AppConfig': <function AppConfig>, 'Auth': <class 'gluon.tools.Auth'>, 'B': <class 'gluon.html.B'>, 'BEAUTIFY': <class 'gluon.html.BEAUTIFY'>, 'BODY': <class 'gluon.html.BODY'>, 'BR': <class 'gluon.html.BR'>, 'BUTTON': <class 'gluon.html.BUTTON'>, ...}"
p67
sS'ccode'
p68
S'<code object <module> at 0A5D9800, file "C:\\User...ameDayCalendar\\views\\default/index.html", line 1>'
p69
ssS'lnum'
p70
I227
sS'lines'
p71
(dp72
I224
S'            ccode = code'
p73
sI225
S'        else:'
p74
sI226
S'            ccode = compile2(code, layer)'
p75
sI227
S'        exec ccode in environment'
p76
sI228
S'    except HTTP:'
p77
sI229
S'        raise'
p78
sI230
S'    except RestrictedError:'
p79
sI231
S'        # do not encapsulate (obfuscate) the original RestrictedError'
p80
sI222
S'    try:'
p81
sI223
S'        if isinstance(code, types.CodeType):'
p82
ssS'call'
p83
S'(code=r"response.write(\'<!DOCTYPE html>\\r\\n<!--[if (gt I...ript>\\r\\n  </body>\\r\\n</html>\\r\\n\', escape=False)", environment={\'A\': <class \'gluon.html.A\'>, \'ANY_OF\': <class \'gluon.validators.ANY_OF\'>, \'ASSIGNJS\': <function ASSIGNJS>, \'AppConfig\': <function AppConfig>, \'Auth\': <class \'gluon.tools.Auth\'>, \'B\': <class \'gluon.html.B\'>, \'BEAUTIFY\': <class \'gluon.html.BEAUTIFY\'>, \'BODY\': <class \'gluon.html.BODY\'>, \'BR\': <class \'gluon.html.BR\'>, \'BUTTON\': <class \'gluon.html.BUTTON\'>, ...}, layer=r\'C:\\Users\\xsarah\\Desktop\\xborlandax\\University\\cs...ications\\GameDayCalendar\\views\\default/index.html\')'
p84
sS'func'
p85
S'restricted'
p86
sa(dp87
g62
S'C:\\Users\\xsarah\\Desktop\\xborlandax\\University\\cs183\\web2py\\applications\\GameDayCalendar\\views\\default\\index.html'
p88
sg64
(dp89
S'div'
p90
S'undefined'
p91
sS'dev'
p92
g91
sS'v'
g91
ssg70
I115
sg71
(dp93
I106
S"    response.write('\\r\\n            <h3>Left Sidebar</h3>\\r\\n            <p></p>\\r\\n            ', escape=False)"
p94
sI107
S"    response.write('\\r\\n        </div>\\r\\n      ', escape=False)"
p95
sI108
S'    pass'
p96
sI109
S'response.write(\'\\r\\n\\r\\n      <div class="\', escape=False)'
p97
sI110
S'response.write(middle_column)'
p98
sI111
S'response.write(\'">\\r\\n        \', escape=False)'
p99
sI112
S"response.write('\\r\\n        ', escape=False)"
p100
sI113
S"response.write('\\r\\n\\r\\n', escape=False)"
p101
sI114
S'response.write(\'\\r\\n\\r\\n\\r\\n<div id="vue-div" class="display:none" style="min-width:1920px;min-height:1080px">\\r\\n\\r\\n    <!-- Calender Section -->\\r\\n    <div v-if="page==\\\'calendar\\\'" id="calendar page" style="height:600px;">\\r\\n        <div id="main game and calendar" class="col-md-6">\\r\\n\\r\\n            <!-- Details -->\\r\\n            <div v-if="game_data!=\\\'null\\\'" class="game_table" style="margin-left:10%">\\r\\n                <div class="title"><h2>${game_data.name}</h2></div>\\r\\n                <button id="return calendar" v-on:click="goto(\\\'calendar\\\')" style="background-color:darkslateblue;color:white">\\r\\n                    <i class="fa fa-calendar"></i> Return to Calendar\\r\\n                </button>\\r\\n                <button id="add_game_to_list_button" v-if="game_data.game_in_list==\\\'plus\\\'"\\r\\n                        v-on:click="add_game_list(game_data.id,game_data.name,game_data.coverThumb)"\\r\\n                        style="background-color:lightblue;color:white">\\r\\n                    <i class="fa fa-plus-circle"></i> Add to Personal Game List\\r\\n                </button>\\r\\n\\r\\n                <button id="remove_game_from_list_button" v-if="game_data.game_in_list==\\\'minus\\\'"\\r\\n                        v-on:click="rem_game_list(game_data.id)" style="background-color:red;color:white">\\r\\n                    <i class="fa fa-minus-circle"></i> Remove from Personal Game List\\r\\n                </button>\\r\\n                <span v-if="game_data.game_likes != 1">\\r\\n                    ${game_data.game_likes} people have this in their Personal Game List!\\r\\n                    <span v-if="game_data.game_in_list==\\\'minus\\\'"> (Including you!)</span>\\r\\n                </span>\\r\\n                <span v-if="game_data.game_likes == 1">\\r\\n                    ${game_data.game_likes} person has this in their Personal Game List!\\r\\n                    <span v-if="game_data.game_in_list==\\\'minus\\\'"> (That\\\'s you!)</span>\\r\\n                </span>\\r\\n                <br><br>\\r\\n\\r\\n                <div id="game content"\\r\\n                     style="height:600px;overflow:scroll;overflow-y:scroll;overflow-x:hidden;width: 900px;">\\r\\n                    <table>\\r\\n                        <tbody>\\r\\n                        <tr>\\r\\n                            <td><b>Cover</b></td>\\r\\n                            <td><img v-bind:src="game_data.coverReg"></td>\\r\\n                        </tr>\\r\\n\\r\\n                        <tr>\\r\\n                            <td><b>Release</b></td>\\r\\n                            <td>\\r\\n                                <table>\\r\\n                                    <tr v-for="releaseInfo in game_data.release">\\r\\n                                        <td>Platform: ${releaseInfo.platform}</td>\\r\\n                                        <td>Region: ${releaseInfo.region}</td>\\r\\n                                        <td>Date: ${releaseInfo.date}</td>\\r\\n                                    </tr>\\r\\n                                </table>\\r\\n                            </td>\\r\\n                        </tr>\\r\\n\\r\\n                        <!-- General Information -->\\r\\n                        <tr>\\r\\n                            <td><b>Storyline</b></td>\\r\\n                            <td>${game_data.storyline}</td>\\r\\n                        </tr>\\r\\n                        <tr>\\r\\n                            <td><b>Summary</b></td>\\r\\n                            <td>${game_data.summary}</td>\\r\\n                        </tr>\\r\\n                        <tr>\\r\\n                            <td><b>Publishers</b></td>\\r\\n                            <td>\\r\\n                                <div v-for="pub in game_data.publishers">${pub}</div>\\r\\n                            </td>\\r\\n                        </tr>\\r\\n                        <tr>\\r\\n                            <td><b>Developers</b></td>\\r\\n                            <td>\\r\\n                                <div v-for="dev in game_data.developers">${dev}</div>\\r\\n                            </td>\\r\\n                        </tr>\\r\\n                        <tr>\\r\\n                            <td><b>Themes</b></td>\\r\\n                            <td>\\r\\n                                <div v-for="theme in game_data.themes">${theme}</div>\\r\\n                            </td>\\r\\n                        </tr>\\r\\n                        <tr>\\r\\n                            <td><b>Player Modes</b></td>\\r\\n                            <td>\\r\\n                                <div v-for="mode in game_data.gameModes">${mode}</div>\\r\\n                            </td>\\r\\n                        </tr>\\r\\n                        <!-- End General Information -->\\r\\n\\r\\n                        <!-- Media -->\\r\\n                        <tr>\\r\\n                            <td><b>Screenshots</b></td>\\r\\n                            <td>\\r\\n                        <tr v-for="img in game_data.screenshots">\\r\\n                            <td></td>\\r\\n                            <td><img v-bind:src="img.imgMediumURL"></td>\\r\\n                        </tr>\\r\\n\\r\\n                        <tr>\\r\\n                            <td><b>Videos</b></td>\\r\\n                            <td>\\r\\n                        <tr v-for="vid in game_data.videos">\\r\\n                            <td></td>\\r\\n                            <td>\\r\\n                                <embed v-bind:src="vid.vidURL">\\r\\n                            </td>\\r\\n                        </tr>\\r\\n                        <!-- End Media -->\\r\\n\\r\\n                        </tbody>\\r\\n                    </table>\\r\\n\\r\\n\\r\\n                    <!-- Comments Section -->\\r\\n                    <div class="comments"><h2>Comments</h2></div>\\r\\n                    <div v-if="user_id!=\\\'null\\\'" id="new message section">\\r\\n                        <form action="#" v-on:submit.prevent="add_game_post(game_data.id)" class="form-horizontal"\\r\\n                              enctype="multipart/form-data" method="post">\\r\\n                            <div class="form-group" id="no_table_post_content">\\r\\n                                <div style="padding-left: 20px; padding-right: 20px">\\r\\n                                    <textarea class="form-control string" id="no_table_post_content"\\r\\n                                              v-model="form_post_content"></textarea>\\r\\n                                    <span class="help-block"></span>\\r\\n                                </div>\\r\\n                            </div>\\r\\n                            <div class="new-post-button" id="submit_record__row">\\r\\n                                <div>\\r\\n                                    <input class="btn btn-primary" class="post-button" id="add_post_submit"\\r\\n                                           type="submit" value="Post"/>\\r\\n                                    <input class="btn btn-warning" class="cancel-button" id="cancel_edit_submit"\\r\\n                                           type="reset" value="Clear"/>\\r\\n                                </div>\\r\\n                            </div>\\r\\n                        </form>\\r\\n                    </div>\\r\\n                    <br>\\r\\n                    <span v-if="more_post" class="go forward posts">\\r\\n                        <button v-on:click="get_game_posts(index_post,\\\'more\\\',game_data.id)"\\r\\n                                style="background-color:darkslateblue;color:white">\\r\\n                            <i class="fa fa-arrow-left"></i> Older Comments\\r\\n                        </button>\\r\\n                    </span>\\r\\n                    <span v-if="less_post" class="go back posts">\\r\\n                        <button v-on:click="get_game_posts(index_post,\\\'less\\\',game_data.id)"\\r\\n                                style="background-color:darkslateblue;color:white">\\r\\n                            <i class="fa fa-arrow-right"></i> Newer Comments\\r\\n                        </button>\\r\\n                    </span>\\r\\n                    <div class="post_content">\\r\\n                        <div v-if="game_posts.length!=0">\\r\\n                            <div class="post" v-for="post in game_posts">\\r\\n                                ${post.post_content}\\r\\n                                <div style="color:#0099ff">\\r\\n                                    <table>\\r\\n                                        <tbody>\\r\\n                                        <tr>\\r\\n                                            <br>\\r\\n                                            <div>Posted by ${post.post_name} on ${post.created_on}</div>\\r\\n                                            <div v-if="post.belongs_to_user==true">\\r\\n                                                <button v-on:click="rem_game_post(post.id,game_data.id)">\\r\\n                                                    <i class="fa fa-trash-o"></i> Delete\\r\\n                                                </button>\\r\\n                                            </div>\\r\\n                                            <div v-if="user_id!=\\\'null\\\'">\\r\\n                                                <div v-if="post.belongs_to_user==false">\\r\\n                                                    <button v-on:click="start_chat(post.user_email)">\\r\\n                                                        <i class="fa fa-envelope-o"></i> Message ${post.post_name}\\r\\n                                                    </button>\\r\\n                                                </div>\\r\\n                                            </div>\\r\\n                                        </tr>\\r\\n                                        </tbody>\\r\\n                                    </table>\\r\\n                                </div>\\r\\n                            </div>\\r\\n                        </div>\\r\\n                        <div v-if="game_posts.length==0">\\r\\n                            No comments have been posted on this game. Be the first to comment!\\r\\n                        </div>\\r\\n\\r\\n                    </div>\\r\\n                    <!-- End Comments Section -->\\r\\n                </div>\\r\\n            </div>\\r\\n\\r\\n\\r\\n            <!-- Game Calendar -->\\r\\n            <div v-else style="margin-left:10%">\\r\\n                <div class="title"><h2>Game Calendar - ${monthDisplay} ${yearDisplay}</h2></div>\\r\\n                <button id="previous month" v-on:click="get_games(prevMonth,prevYear)"\\r\\n                        style="background-color:darkslateblue;color:white">\\r\\n                    <i class="fa fa-arrow-left" aria-hidden="true"></i> Previous Month\\r\\n                </button>\\r\\n                <button id="next month" v-on:click="get_games(nextMonth,nextYear)"\\r\\n                        style="background-color:darkslateblue;color:white">\\r\\n                    <i class="fa fa-arrow-right" aria-hidden="true"></i> Next Month\\r\\n                </button>\\r\\n                <br><br>\\r\\n                  <p>\\r\\n    <select v-model="selected">\\r\\n      <option>one</option>\\r\\n      <option>two</option>\\r\\n    </select>\\r\\n    \', escape=False)'
p102
sI115
S'selected'
p103
sI116
S'response.write(\'\\r\\n  </p>\\r\\n                <div class="result_table"\\r\\n                     style="height:600px;overflow:scroll;overflow-y:scroll;overflow-x:hidden;width:900px;">\\r\\n                    <table>\\r\\n                        <thead>\\r\\n                        <tr>\\r\\n                            <th></th>\\r\\n                            <th>Name</th>\\r\\n                            <th>Platform</th>\\r\\n                            <th>Region</th>\\r\\n                            <th>Release date</th>\\r\\n                            \\r\\n                            <th>Details</th>\\r\\n                        </tr>\\r\\n                        </thead>\\r\\n                        <tbody>\\r\\n                        <tr v-for="game in game_list" >\\r\\n                            \\r\\n                            <td><img style="width:90px;height:90px;" v-bind:src="game.coverThumb"></td>\\r\\n                            <td style=" font-weight: bold;">${game.name}</h5>\\r\\n                            <td >${game.release[0].platform} </td>\\r\\n                            <td >${game.release[0].region} </td>\\r\\n                            <td> ${game.release[0].date}</td>\\r\\n                            <td>\\r\\n                                <button class="fa fa-gamepad" id="get_game_data_button"\\r\\n                                        v-on:click="get_game_data(game.id)"\\r\\n                                        style="background-color:darkslateblue;color:white"></button>\\r\\n                            </td>\\r\\n                            <!---Debugging. probably can use to check whether or not the game is in the list from the monthly schedule\\r\\n                            <div class="user-game-list container">\\r\\n                            <td v-if="game.game_in_list==\\\'plus\\\'"> <button class="fa fa-plus-circle" id="add_game_to_list"  ></button></td>\\r\\n                            <td v-if="game.game_in_list==\\\'minus\\\'"> <button class="fa fa-minus-circle" id="remove_game_from_list"    ></button></td>\\r\\n\\r\\n                            </div> --->\\r\\n                        </tr>\\r\\n                        </tbody>\\r\\n                    </table>\\r\\n                </div>\\r\\n\\r\\n\\r\\n            </div>\\r\\n        </div>\\r\\n\\r\\n        <!-- Personal Games List -->\\r\\n        <div id="user list" class="col-md-4" style="height:800px;margin-left:8%">\\r\\n            <div class="title"><h2>Personal Game List</h2></div>\\r\\n            <div v-if="user_id==\\\'null\\\'">\\r\\n                Please log in to see your personal list of games.\\r\\n            </div>\\r\\n            <div v-else>\\r\\n                <button v-on:click="goto(\\\'messages\\\')" style="width:250px;background-color:darkslateblue;color:white"><i\\r\\n                        class="fa fa-envelope-o"></i> Messages\\r\\n                </button>\\r\\n                <br><br>\\r\\n\\r\\n                <div v-if="user_game_list_size==0">\\r\\n                    Looks like you haven\\\'t saved any games!\\r\\n                    <br>\\r\\n                    When you save games, it\\\'ll be displayed here!\\r\\n                </div>\\r\\n                <div v-if="user_game_list_size>0"\\r\\n                     style="height:600px;width:325px;overflow:scroll;overflow-y:scroll;overflow-x:hidden;">\\r\\n                    <div v-for="game in user_game_list" class="container">\\r\\n                        <button id="get_game_data_button" v-on:click="get_game_data(game.id)"\\r\\n                                style="background-color:lightblue">\\r\\n                            <table>\\r\\n                                <tbody>\\r\\n                                <tr style="background-color:lightblue;border: 0">\\r\\n                                    <td style="border: 0">\\r\\n                                        <div style="width:50px;"><img v-bind:src="game.thumb" width="100%"\\r\\n                                                                      class="preview_image"/></div>\\r\\n                                    </td>\\r\\n                                    <td style="border: 0">\\r\\n                                        <div style="width:200px;white-space: initial;word-wrap: break-word;">\\r\\n                                            ${game.name}\\r\\n                                        </div>\\r\\n                                    </td>\\r\\n                                </tr>\\r\\n                                </tbody>\\r\\n                            </table>\\r\\n                        </button>\\r\\n                    </div>\\r\\n                </div>\\r\\n            </div>\\r\\n        </div>\\r\\n    </div>\\r\\n\\r\\n\\r\\n    <!-- Messages Section -->\\r\\n    <!-- TODO: Change Clear to Refresh? -->\\r\\n    <div v-if="page==\\\'messages\\\'" class="container" id="messages page" style="height:800px;">\\r\\n        <div id="list of messages" class="col-md-8">\\r\\n            <div v-if="user_id==\\\'null\\\'">\\r\\n                Please log in to see your personal messages.\\r\\n            </div>\\r\\n            <div v-if="friend_name!=\\\'\\\'">\\r\\n                <div class="title"><h2>Messaging ${friend_name}</h2></div>\\r\\n                <div v-if="friend_games_list.length>1">\\r\\n                    Both yours and ${friend_name}\\\'s Personal Game List have these games in common:\\r\\n                    <span v-for="game in friend_games_list">\\r\\n                         ${game}, \\r\\n                    </span>\\r\\n                </div>\\r\\n                <div v-if="friend_games_list.length==1">\\r\\n                    Both yours and ${friend_name}\\\'s Personal Game List have this game in common:\\r\\n                    <span v-for="game in friend_games_list">\\r\\n                         ${game}\\r\\n                    </span>\\r\\n                </div>\\r\\n                <div v-if="friend_games_list.length==0">\\r\\n                    You and ${friend_name} don\\\'t have any games in common. Perhaps you could offer some suggestions?\\r\\n                </div>\\r\\n                <div id="new message section">\\r\\n                    <form action="#" v-on:submit.prevent="add_chat_post()" class="form-horizontal"\\r\\n                          enctype="multipart/form-data" method="post">\\r\\n                        <div class="form-group" id="no_table_post_content">\\r\\n                            <div>\\r\\n                                <input class="form-control string" id="no_table_post_content"\\r\\n                                       v-model="form_post_content" type="text"/>\\r\\n                                <span class="help-block"></span>\\r\\n                            </div>\\r\\n                        </div>\\r\\n                        <div class="new-post-button" id="submit_record__row">\\r\\n                            <div>\\r\\n                                <input class="btn btn-primary" class="post-button" id="add_post_submit" type="submit"\\r\\n                                       value="Post"/>\\r\\n                                <input class="btn btn-warning" class="cancel-button" id="cancel_edit_submit"\\r\\n                                       type="reset" value="Clear"/>\\r\\n\\r\\n                            </div>\\r\\n                        </div>\\r\\n                    </form>\\r\\n                </div>\\r\\n                <!-- Text Boxes -->\\r\\n                <div class="post_content">\\r\\n                    <!-- Hardcoded height, maybe find some way to dynamically set it -->\\r\\n                    <div v-if="friend_chat_list.length!=0"\\r\\n                         style="height:528px;overflow:scroll;overflow-y:scroll;overflow-x:hidden;">\\r\\n                        <div class="post" v-for="post in friend_chat_list">\\r\\n                            ${post.post_content}\\r\\n                            <br>\\r\\n                            <br>\\r\\n                            <div style="color:#0099ff">\\r\\n                                <table>\\r\\n\\r\\n                                    <td v-if="post.belongs_to_user==false" style="width:300px; text-align:left;border: 0;">\\r\\n                                        ${post.post_name}\\r\\n                                    </td>\\r\\n                                    <td v-if="post.belongs_to_user==true" style="width:300px; text-align:left;border: 0"> You</td>\\r\\n                                    <td style="width:300px;border: 0">Sent on ${post.created_on}</td>\\r\\n                                    <!--<td v-if="post.belongs_to_user==true"><button class="fa fa-trash-o" v-on:click="rem_game_post(post.id,game_data.id)"></button></td>-->\\r\\n\\r\\n\\r\\n                                </table>\\r\\n                            </div>\\r\\n                        </div>\\r\\n                    </div>\\r\\n                    <div v-if="friend_chat_list.length==0">\\r\\n                        No messages found. Post a message above to get the ball rolling!\\r\\n                    </div>\\r\\n                </div>\\r\\n            </div>\\r\\n            <div v-if="friend_name==\\\'\\\'">\\r\\n                <div class="title"><h2>Game Day Messages </h2></div>\\r\\n                Select a friend to start sending messages.\\r\\n            </div>\\r\\n        </div>\\r\\n        <div id="switch between messages" class="col-md-4">\\r\\n            <div class="title"><h2>Message List</h2></div>\\r\\n            <div v-if="user_id==\\\'null\\\'" style="height:400px;">\\r\\n                Please log in to see your personal list of messages.\\r\\n            </div>\\r\\n            <div v-else>\\r\\n                <button class="btn orange" v-on:click="goto(\\\'calendar\\\')"\\r\\n                        style="background-color:darkslateblue;color:white"><i class="fa fa-calendar"></i> Return to Calendar\\r\\n                </button>\\r\\n                <br><br>\\r\\n\\r\\n                <div v-if="friend_email_list.length==0">\\r\\n                    Looks like you don\\\'t have any ongoing messages (yet)! Start up a chat with someone on a game\\\'s page!\\r\\n                </div>\\r\\n                <div v-if="friend_email_list.length>0"\\r\\n                     style="height:600px;width:300px;overflow:scroll;overflow-y:scroll;overflow-x:hidden;">\\r\\n                    <div v-for="email in friend_email_list" class="container">\\r\\n                        <div class="col-md-8 friend_list" style="padding:4px">\\r\\n                            <button class="fa fa-envelope" id="get_chat_button" v-on:click="get_chat(email.email)"\\r\\n                                    style="background-color:orange;color:white;"></button>\\r\\n                            ${email.name}\\r\\n\\r\\n                        </div>\\r\\n                    </div>\\r\\n                </div>\\r\\n            </div>\\r\\n        </div>\\r\\n    </div>\\r\\n\\r\\n\\r\\n    <!-- News Section -->\\r\\n    <div class="title" style="margin-top:12%;margin-left:110px"><h2>Daily Gaming News</h2></div>\\r\\n    <div id="Gaming News" class="gaming news">\\r\\n        <span v-if="gaming_news_response==\\\'ok\\\'">\\r\\n            <div v-for="story in gaming_news" class="container">\\r\\n                <table style="table-layout:fixed">\\r\\n                    <tr>\\r\\n                    <td><div class="col-md-2 news_image">\\r\\n                        <img v-bind:src="story.preview" width="200px" height="100px" class="preview_image"/>\\r\\n                    </div></td>\\r\\n                    <td width="650px"><div class="col-md-10 news_title ">\\r\\n                        <h4><a v-bind:href="story.url" target="_blank">${story.title}</a></h4>\\r\\n                    </div></td>\\r\\n                    </tr>\\r\\n                </table>\\r\\n            </div>\\r\\n        </span>\\r\\n        <span v-if="gaming_news_response==\\\'error\\\'" style="margin-left:112px">\\r\\n            Sorry, we cannot retrieve gaming news right now.\\r\\n        </span>\\r\\n    </div>\\r\\n    <br>\\r\\n    <br>\\r\\n\\r\\n    <script src="\', escape=False)'
p104
sI117
S"response.write(URL('static', 'js/default_index.js'))"
p105
sI118
S'response.write(\'"></script>\\r\\n</div>\\r\\n\', escape=False)'
p106
sI119
S"response.write('\\r\\n        ', escape=False)"
p107
sI120
S"response.write('\\r\\n      </div>\\r\\n\\r\\n      ', escape=False)"
p108
sI121
S'if right_sidebar_enabled:'
p109
sI122
S'    response.write(\'\\r\\n        <div class="col-md-3">\\r\\n            \', escape=False)'
p110
sI123
S"    response.write('\\r\\n            <h3>Right Sidebar</h3>\\r\\n            <p></p>\\r\\n            ', escape=False)"
p111
sI124
S"    response.write('\\r\\n        </div>\\r\\n      ', escape=False)"
p112
sI125
S'    pass'
p113
ssg83
S'()'
p114
sg85
S'<module>'
p115
sasS'pyver'
p116
S'Python 2.7.12: C:\\Python27\\python.exe (prefix: C:\\Python27)'
p117
sS'session'
p118
g57
(S's[\x08\x00\x00<div><table><tr><td style="font-weight:bold;vertical-align:top;">auth</td><td style="vertical-align:top;">:</td><td><div><table><tr><td style="font-weight:bold;vertical-align:top;">expiration</td><td style="vertical-align:top;">:</td><td><div>3600</div></td></tr><tr><td style="font-weight:bold;vertical-align:top;">hmac_key</td><td style="vertical-align:top;">:</td><td><div>3d8bfa1b-1016-4310-964b-da17d1e9e109</div></td></tr><tr><td style="font-weight:bold;vertical-align:top;">last_visit</td><td style="vertical-align:top;">:</td><td><div>datetime.datetime(2016, 12, 5, 22, 30, 14, 557000)</div></td></tr><tr><td style="font-weight:bold;vertical-align:top;">user</td><td style="vertical-align:top;">:</td><td><div><table><tr><td style="font-weight:bold;vertical-align:top;">email</td><td style="vertical-align:top;">:</td><td><div>sarah@gmail.com</div></td></tr><tr><td style="font-weight:bold;vertical-align:top;">first_name</td><td style="vertical-align:top;">:</td><td><div>Sarah</div></td></tr><tr><td style="font-weight:bold;vertical-align:top;">id</td><td style="vertical-align:top;">:</td><td><div>5L</div></td></tr><tr><td style="font-weight:bold;vertical-align:top;">last_name</td><td style="vertical-align:top;">:</td><td><div>AAA</div></td></tr><tr><td style="font-weight:bold;vertical-align:top;">registration_id</td><td style="vertical-align:top;">:</td><td><div></div></td></tr><tr><td style="font-weight:bold;vertical-align:top;">registration_key</td><td style="vertical-align:top;">:</td><td><div></div></td></tr><tr><td style="font-weight:bold;vertical-align:top;">reset_password_key</td><td style="vertical-align:top;">:</td><td><div></div></td></tr></table></div></td></tr><tr><td style="font-weight:bold;vertical-align:top;">user_groups</td><td style="vertical-align:top;">:</td><td><div><table><tr><td style="font-weight:bold;vertical-align:top;">5</td><td style="vertical-align:top;">:</td><td><div>user_5</div></td></tr></table></div></td></tr></table></div></td></tr><tr><td style="font-weight:bold;vertical-align:top;">flash</td><td style="vertical-align:top;">:</td><td><div>None</div></td></tr></table></div>'
tRp119
sS'etype'
p120
S"<type 'exceptions.NameError'>"
p121
sS'date'
p122
S'Mon Dec 05 22:33:29 2016'
p123
sS'response'
p124
g57
(S'sR\x1d\x00\x00<div><table><tr><td style="font-weight:bold;vertical-align:top;">body</td><td style="vertical-align:top;">:</td><td><div>&lt;cStringIO.StringO object at 0x0A4B95C0&gt;</div></td></tr><tr><td style="font-weight:bold;vertical-align:top;">cookies</td><td style="vertical-align:top;">:</td><td><div><table><tr><td style="font-weight:bold;vertical-align:top;">session_id_gamedaycalendar</td><td style="vertical-align:top;">:</td><td><div>9:5ad0c2c2-7cf6-4967-9c92-8d89026e2325<table><tr><td style="font-weight:bold;vertical-align:top;">comment</td><td style="vertical-align:top;">:</td><td><div></div></td></tr><tr><td style="font-weight:bold;vertical-align:top;">domain</td><td style="vertical-align:top;">:</td><td><div></div></td></tr><tr><td style="font-weight:bold;vertical-align:top;">expires</td><td style="vertical-align:top;">:</td><td><div></div></td></tr><tr><td style="font-weight:bold;vertical-align:top;">httponly</td><td style="vertical-align:top;">:</td><td><div></div></td></tr><tr><td style="font-weight:bold;vertical-align:top;">max-age</td><td style="vertical-align:top;">:</td><td><div></div></td></tr><tr><td style="font-weight:bold;vertical-align:top;">path</td><td style="vertical-align:top;">:</td><td><div>/</div></td></tr><tr><td style="font-weight:bold;vertical-align:top;">secure</td><td style="vertical-align:top;">:</td><td><div></div></td></tr><tr><td style="font-weight:bold;vertical-align:top;">version</td><td style="vertical-align:top;">:</td><td><div></div></td></tr></table></div></td></tr></table></div></td></tr><tr><td style="font-weight:bold;vertical-align:top;">delimiters</td><td style="vertical-align:top;">:</td><td><div><table><tr><td><div>{{</div></td></tr><tr><td><div>}}</div></td></tr></table></div></td></tr><tr><td style="font-weight:bold;vertical-align:top;">files</td><td style="vertical-align:top;">:</td><td><div><table><tr><td><div>/GameDayCalendar/static/js/jquery.js</div></td></tr><tr><td><div>/GameDayCalendar/static/css/calendar.css</div></td></tr><tr><td><div>/GameDayCalendar/static/js/calendar.js</div></td></tr><tr><td><div>/GameDayCalendar/static/js/web2py.js</div></td></tr></table></div></td></tr><tr><td style="font-weight:bold;vertical-align:top;">flash</td><td style="vertical-align:top;">:</td><td><div></div></td></tr><tr><td style="font-weight:bold;vertical-align:top;">form_label_separator</td><td style="vertical-align:top;">:</td><td><div></div></td></tr><tr><td style="font-weight:bold;vertical-align:top;">formstyle</td><td style="vertical-align:top;">:</td><td><div>bootstrap3_inline</div></td></tr><tr><td style="font-weight:bold;vertical-align:top;">generic_patterns</td><td style="vertical-align:top;">:</td><td><div><table><tr><td><div>*</div></td></tr></table></div></td></tr><tr><td style="font-weight:bold;vertical-align:top;">google_analytics_id</td><td style="vertical-align:top;">:</td><td><div>None</div></td></tr><tr><td style="font-weight:bold;vertical-align:top;">headers</td><td style="vertical-align:top;">:</td><td><div><table><tr><td style="font-weight:bold;vertical-align:top;">X-Powered-By</td><td style="vertical-align:top;">:</td><td><div>web2py</div></td></tr></table></div></td></tr><tr><td style="font-weight:bold;vertical-align:top;">logo</td><td style="vertical-align:top;">:</td><td><div><a class="navbar-brand" href="" id="gamedaycalendar"><b>Game Day</b>&trade;&nbsp;</a></div></td></tr><tr><td style="font-weight:bold;vertical-align:top;">menu</td><td style="vertical-align:top;">:</td><td><div><table></table></div></td></tr><tr><td style="font-weight:bold;vertical-align:top;">meta</td><td style="vertical-align:top;">:</td><td><div><table><tr><td style="font-weight:bold;vertical-align:top;">author</td><td style="vertical-align:top;">:</td><td><div>Your Name &lt;you@example.com&gt;</div></td></tr><tr><td style="font-weight:bold;vertical-align:top;">description</td><td style="vertical-align:top;">:</td><td><div>a cool new app</div></td></tr><tr><td style="font-weight:bold;vertical-align:top;">generator</td><td style="vertical-align:top;">:</td><td><div>Web2py Web Framework</div></td></tr><tr><td style="font-weight:bold;vertical-align:top;">keywords</td><td style="vertical-align:top;">:</td><td><div><table><tr><td><div>web2py</div></td></tr><tr><td><div>python</div></td></tr><tr><td><div>framework</div></td></tr></table></div></td></tr></table></div></td></tr><tr><td style="font-weight:bold;vertical-align:top;">models_to_run</td><td style="vertical-align:top;">:</td><td><div><table><tr><td><div>^\\w+\\.py$</div></td></tr><tr><td><div>^default/\\w+\\.py$</div></td></tr><tr><td><div>^default/index/\\w+\\.py$</div></td></tr></table></div></td></tr><tr><td style="font-weight:bold;vertical-align:top;">postprocessing</td><td style="vertical-align:top;">:</td><td><div><table></table></div></td></tr><tr><td style="font-weight:bold;vertical-align:top;">session_client</td><td style="vertical-align:top;">:</td><td><div>127.0.0.1</div></td></tr><tr><td style="font-weight:bold;vertical-align:top;">session_cookie_compression_level</td><td style="vertical-align:top;">:</td><td><div>None</div></td></tr><tr><td style="font-weight:bold;vertical-align:top;">session_cookie_expires</td><td style="vertical-align:top;">:</td><td><div>None</div></td></tr><tr><td style="font-weight:bold;vertical-align:top;">session_data_name</td><td style="vertical-align:top;">:</td><td><div>session_data_gamedaycalendar</div></td></tr><tr><td style="font-weight:bold;vertical-align:top;">session_db_record_id</td><td style="vertical-align:top;">:</td><td><div>9L</div></td></tr><tr><td style="font-weight:bold;vertical-align:top;">session_db_table</td><td style="vertical-align:top;">:</td><td><div>&lt;Table web2py_session_GameDayCalendar (id, locked, client_ip, created_datetime, modified_datetime, unique_key, session_data)&gt;</div></td></tr><tr><td style="font-weight:bold;vertical-align:top;">session_db_unique_key</td><td style="vertical-align:top;">:</td><td><div>5ad0c2c2-7cf6-4967-9c92-8d89026e2325</div></td></tr><tr><td style="font-weight:bold;vertical-align:top;">session_hash</td><td style="vertical-align:top;">:</td><td><div>505c6a4862d508cc3febc46d800dc3b7</div></td></tr><tr><td style="font-weight:bold;vertical-align:top;">session_id</td><td style="vertical-align:top;">:</td><td><div>9:5ad0c2c2-7cf6-4967-9c92-8d89026e2325</div></td></tr><tr><td style="font-weight:bold;vertical-align:top;">session_id_name</td><td style="vertical-align:top;">:</td><td><div>session_id_gamedaycalendar</div></td></tr><tr><td style="font-weight:bold;vertical-align:top;">session_masterapp</td><td style="vertical-align:top;">:</td><td><div>GameDayCalendar</div></td></tr><tr><td style="font-weight:bold;vertical-align:top;">session_new</td><td style="vertical-align:top;">:</td><td><div>False</div></td></tr><tr><td style="font-weight:bold;vertical-align:top;">session_storage_type</td><td style="vertical-align:top;">:</td><td><div>db</div></td></tr><tr><td style="font-weight:bold;vertical-align:top;">status</td><td style="vertical-align:top;">:</td><td><div>200</div></td></tr><tr><td style="font-weight:bold;vertical-align:top;">subtitle</td><td style="vertical-align:top;">:</td><td><div></div></td></tr><tr><td style="font-weight:bold;vertical-align:top;">title</td><td style="vertical-align:top;">:</td><td><div>Gamedaycalendar</div></td></tr><tr><td style="font-weight:bold;vertical-align:top;">view</td><td style="vertical-align:top;">:</td><td><div>default/index.html</div></td></tr></table></div>'
tRp125
sS'locals'
p126
(dp127
S'Service'
p128
S"<class 'gluon.tools.Service'>"
p129
sS'FORMAT'
p130
S"'%(asctime)s %(levelname)s %(process)s %(thread)s %(funcName)s():%(lineno)d %(message)s'"
p131
sS'OBJECT'
p132
S"<class 'gluon.html.OBJECT'>"
p133
sS'SQLDB'
p134
S"<class 'pydal.base.DAL'>"
p135
sg118
S"<Storage {'_auth_next': '/GameDayCalendar/defaul...gin]': ['cbf3622e-00e6-48ed-a390-8779dc127c95']}>"
p136
sS'LINK'
p137
S"<class 'gluon.html.LINK'>"
p138
sS'BR'
p139
S"<class 'gluon.html.BR'>"
p140
sS'local_import'
p141
S'<function <lambda>>'
p142
sS'OPTGROUP'
p143
S"<class 'gluon.html.OPTGROUP'>"
p144
sS'__package__'
p145
S'None'
p146
sS'PRE'
p147
S"<class 'gluon.html.PRE'>"
p148
sS'IS_INT_IN_RANGE'
p149
S"<class 'gluon.validators.IS_INT_IN_RANGE'>"
p150
sS'left_sidebar_enabled'
p151
S'False'
p152
sS'IS_LOWER'
p153
S"<class 'gluon.validators.IS_LOWER'>"
p154
sS'IS_STRONG'
p155
S"<class 'gluon.validators.IS_STRONG'>"
p156
sS'cache'
p157
S'<gluon.cache.Cache object>'
p158
sS'IS_IN_DB'
p159
S"<class 'gluon.validators.IS_IN_DB'>"
p160
sS'TAG'
p161
S'<gluon.html.__TAG__ object>'
p162
sS'SQLField'
p163
S"<class 'pydal.objects.Field'>"
p164
sS'mail'
p165
S'<gluon.tools.Mail object>'
p166
sS'logger'
p167
S'<logging.Logger object>'
p168
sS'BODY'
p169
S"<class 'gluon.html.BODY'>"
p170
sS'IS_DATE_IN_RANGE'
p171
S"<class 'gluon.validators.IS_DATE_IN_RANGE'>"
p172
sS'IFRAME'
p173
S"<class 'gluon.html.IFRAME'>"
p174
sS'URL'
p175
S'<function URL>'
p176
sS'__file__'
p177
S"r'C:\\Users\\xsarah\\Desktop\\xborlandax\\University\\cs...ications\\GameDayCalendar\\views\\default/index.html'"
p178
sS'db'
p179
S'<DAL uri="sqlite://storage.sqlite">'
p180
sS'auth'
p181
S'<gluon.tools.Auth object>'
p182
sS'P'
S"<class 'gluon.html.P'>"
p183
sS'TFOOT'
p184
S"<class 'gluon.html.TFOOT'>"
p185
sS'XHTML'
p186
S"<class 'gluon.html.XHTML'>"
p187
sS'datetime'
p188
S"<module 'datetime' (built-in)>"
p189
sS'ON'
p190
S'True'
p191
sS'OL'
p192
S"<class 'gluon.html.OL'>"
p193
sS'TEXTAREA'
p194
S"<class 'gluon.html.TEXTAREA'>"
p195
sS'MENU'
p196
S"<class 'gluon.html.MENU'>"
p197
sS'IS_IMAGE'
p198
S"<class 'gluon.validators.IS_IMAGE'>"
p199
sS'EM'
p200
S"<class 'gluon.html.EM'>"
p201
sS'CODE'
p202
S"<class 'gluon.html.CODE'>"
p203
sS'HTTP'
p204
S"<class 'gluon.http.HTTP'>"
p205
sS'HR'
p206
S"<class 'gluon.html.HR'>"
p207
sS'IS_DATETIME'
p208
S"<class 'gluon.validators.IS_DATETIME'>"
p209
sS'STYLE'
p210
S"<class 'gluon.html.STYLE'>"
p211
sS'LABEL'
p212
S"<class 'gluon.html.LABEL'>"
p213
sS'CLEANUP'
p214
S"<class 'gluon.validators.CLEANUP'>"
p215
sS'plugins'
p216
S'<gluon.tools.PluginManager object>'
p217
sS'SELECT'
p218
S"<class 'gluon.html.SELECT'>"
p219
sS'CENTER'
p220
S"<class 'gluon.html.CENTER'>"
p221
sS'Auth'
p222
S"<class 'gluon.tools.Auth'>"
p223
sS'DEVELOPMENT_MENU'
p224
g191
sS'__builtins__'
p225
S"{'ArithmeticError': <type 'exceptions.ArithmeticError'>, 'AssertionError': <type 'exceptions.AssertionError'>, 'AttributeError': <type 'exceptions.AttributeError'>, 'BaseException': <type 'exceptions.BaseException'>, 'BufferError': <type 'exceptions.BufferError'>, 'BytesWarning': <type 'exceptions.BytesWarning'>, 'DeprecationWarning': <type 'exceptions.DeprecationWarning'>, 'EOFError': <type 'exceptions.EOFError'>, 'Ellipsis': Ellipsis, 'EnvironmentError': <type 'exceptions.EnvironmentError'>, ...}"
p226
sS'HTML'
p227
S"<class 'gluon.html.HTML'>"
p228
sS'SQLFORM'
p229
S"<class 'gluon.sqlhtml.SQLFORM'>"
p230
sS'LOAD'
p231
S'<function LOAD>'
p232
sS'redirect'
p233
S'<function redirect>'
p234
sS'FIELDSET'
p235
S"<class 'gluon.html.FIELDSET'>"
p236
sS'IS_EQUAL_TO'
p237
S"<class 'gluon.validators.IS_EQUAL_TO'>"
p238
sS'embed64'
p239
S'<function embed64>'
p240
sS'IS_LIST_OF'
p241
S"<class 'gluon.validators.IS_LIST_OF'>"
p242
sS'INPUT'
p243
S"<class 'gluon.html.INPUT'>"
p244
sS'EMBED'
p245
S"<class 'gluon.html.EMBED'>"
p246
sS'_'
S'<function _>'
p247
sS'logging'
p248
S"<module 'logging' from 'C:\\Python27\\lib\\logging\\__init__.pyc'>"
p249
sS'myconf'
p250
S"{'forms': {'formstyle': 'bootstrap3_inline', 'se...': {'names': 'localhost:*, 127.0.0.1:*, *:*, *'}}"
p251
sS'H2'
p252
S"<class 'gluon.html.H2'>"
p253
sS'H3'
p254
S"<class 'gluon.html.H3'>"
p255
sS'AppConfig'
p256
S'<function AppConfig>'
p257
sS'H1'
p258
S"<class 'gluon.html.H1'>"
p259
sS'H6'
p260
S"<class 'gluon.html.H6'>"
p261
sS'H4'
p262
S"<class 'gluon.html.H4'>"
p263
sS'H5'
p264
S"<class 'gluon.html.H5'>"
p265
sS'UL'
p266
S"<class 'gluon.html.UL'>"
p267
sS'IS_UPPER'
p268
S"<class 'gluon.validators.IS_UPPER'>"
p269
sS'xmlescape'
p270
S'<function xmlescape>'
p271
sS'IS_TIME'
p272
S"<class 'gluon.validators.IS_TIME'>"
p273
sS'OPTION'
p274
S"<class 'gluon.html.OPTION'>"
p275
sS'TITLE'
p276
S"<class 'gluon.html.TITLE'>"
p277
sS'CRYPT'
p278
S"<class 'gluon.validators.CRYPT'>"
p279
sS'IS_EMPTY_OR'
p280
S"<class 'gluon.validators.IS_EMPTY_OR'>"
p281
sS'MARKMIN'
p282
S"<class 'gluon.html.MARKMIN'>"
p283
sS'__name__'
p284
S"'__restricted__'"
p285
sS'STRONG'
p286
S"<class 'gluon.html.STRONG'>"
p287
sS'COL'
p288
S"<class 'gluon.html.COL'>"
p289
sS'mc1'
p290
S"'col-md-9'"
p291
sS'mc0'
p292
S"'col-md-12'"
p293
sS'service'
p294
S'<gluon.tools.Service object>'
p295
sS'SCRIPT'
p296
S"<class 'gluon.html.SCRIPT'>"
p297
sS'TABLE'
p298
S"<class 'gluon.html.TABLE'>"
p299
sS'IS_IPV4'
p300
S"<class 'gluon.validators.IS_IPV4'>"
p301
sS'IS_LENGTH'
p302
S"<class 'gluon.validators.IS_LENGTH'>"
p303
sS'IS_IPV6'
p304
S"<class 'gluon.validators.IS_IPV6'>"
p305
sS'XML'
p306
S"<class 'gluon.html.XML'>"
p307
sS'B'
S"<class 'gluon.html.B'>"
p308
sS'IMG'
p309
S"<class 'gluon.html.IMG'>"
p310
sS'SQLTABLE'
p311
S"<class 'gluon.sqlhtml.SQLTABLE'>"
p312
sS'IS_MATCH'
p313
S"<class 'gluon.validators.IS_MATCH'>"
p314
sS'IS_ALPHANUMERIC'
p315
S"<class 'gluon.validators.IS_ALPHANUMERIC'>"
p316
sS'SPAN'
p317
S"<class 'gluon.html.SPAN'>"
p318
sS'IS_JSON'
p319
S"<class 'gluon.validators.IS_JSON'>"
p320
sS'IS_IPADDRESS'
p321
S"<class 'gluon.validators.IS_IPADDRESS'>"
p322
sS'IS_SLUG'
p323
S"<class 'gluon.validators.IS_SLUG'>"
p324
sS'BEAUTIFY'
p325
S"<class 'gluon.html.BEAUTIFY'>"
p326
sS'META'
p327
S"<class 'gluon.html.META'>"
p328
sS'BUTTON'
p329
S"<class 'gluon.html.BUTTON'>"
p330
sS'IS_DATE'
p331
S"<class 'gluon.validators.IS_DATE'>"
p332
sS'IS_EMAIL'
p333
S"<class 'gluon.validators.IS_EMAIL'>"
p334
sS'middle_column'
p335
S"'col-md-12'"
p336
sS'IS_NOT_EMPTY'
p337
S"<class 'gluon.validators.IS_NOT_EMPTY'>"
p338
sS'IS_FLOAT_IN_RANGE'
p339
S"<class 'gluon.validators.IS_FLOAT_IN_RANGE'>"
p340
sS'TBODY'
p341
S"<class 'gluon.html.TBODY'>"
p342
sS'CAT'
p343
S"<class 'gluon.html.CAT'>"
p344
sS'Field'
p345
S"<class 'pydal.objects.Field'>"
p346
sS'mc2'
p347
S"'col-md-6'"
p348
sS'IS_LIST_OF_EMAILS'
p349
S"<class 'gluon.validators.IS_LIST_OF_EMAILS'>"
p350
sS'DIV'
p351
S"<class 'gluon.html.DIV'>"
p352
sS'LEGEND'
p353
S"<class 'gluon.html.LEGEND'>"
p354
sS'COLGROUP'
p355
S"<class 'gluon.html.COLGROUP'>"
p356
sS'DAL'
p357
S"<class 'pydal.base.DAL'>"
p358
sS'ASSIGNJS'
p359
S'<function ASSIGNJS>'
p360
sS'TR'
p361
S"<class 'gluon.html.TR'>"
p362
sS'LI'
p363
S"<class 'gluon.html.LI'>"
p364
sS'right_sidebar_enabled'
p365
g152
sS'TH'
p366
S"<class 'gluon.html.TH'>"
p367
sS'TD'
p368
S"<class 'gluon.html.TD'>"
p369
sS'PluginManager'
p370
S"<class 'gluon.tools.PluginManager'>"
p371
sS'IS_URL'
p372
S"<class 'gluon.validators.IS_URL'>"
p373
sS'A'
S"<class 'gluon.html.A'>"
p374
sS'HEAD'
p375
S"<class 'gluon.html.HEAD'>"
p376
sS'IS_DATETIME_IN_RANGE'
p377
S"<class 'gluon.validators.IS_DATETIME_IN_RANGE'>"
p378
sS'FORM'
p379
S"<class 'gluon.html.FORM'>"
p380
sS'I'
S"<class 'gluon.html.I'>"
p381
sS'sys'
p382
S"<module 'sys' (built-in)>"
p383
sS'IS_NOT_IN_DB'
p384
S"<class 'gluon.validators.IS_NOT_IN_DB'>"
p385
sg124
S"<Storage {'body': <cStringIO.StringO object at 0...y, session_data)>, 'view': 'default/index.html'}>"
p386
sS'THEAD'
p387
S"<class 'gluon.html.THEAD'>"
p388
sS'ANY_OF'
p389
S"<class 'gluon.validators.ANY_OF'>"
p390
sS'IS_NULL_OR'
p391
S"<class 'gluon.validators.IS_EMPTY_OR'>"
p392
sg56
S"<Storage {'_vars': <Storage {}>, 'function': 'in...cs183\\\\web2py\\\\applications\\\\GameDayCalendar\\\\'}>"
p393
sS'IS_EXPR'
p394
S"<class 'gluon.validators.IS_EXPR'>"
p395
sS'T'
S'<gluon.languages.translator object>'
p396
sS'IS_IN_SET'
p397
S"<class 'gluon.validators.IS_IN_SET'>"
p398
sS'IS_UPLOAD_FILENAME'
p399
S"<class 'gluon.validators.IS_UPLOAD_FILENAME'>"
p400
sS'TT'
p401
S"<class 'gluon.html.TT'>"
p402
sS'IS_DECIMAL_IN_RANGE'
p403
S"<class 'gluon.validators.IS_DECIMAL_IN_RANGE'>"
p404
sssS'traceback'
p405
S'Traceback (most recent call last):\n  File "C:\\Users\\xsarah\\Desktop\\xborlandax\\University\\cs183\\web2py\\gluon\\restricted.py", line 227, in restricted\n    exec ccode in environment\n  File "C:\\Users\\xsarah\\Desktop\\xborlandax\\University\\cs183\\web2py\\applications\\GameDayCalendar\\views\\default/index.html", line 115, in <module>\n    <div v-for="dev in game_data.developers">${dev}</div>\nNameError: name \'selected\' is not defined\n'
p406
s.