(dp1
S'output'
p2
S"<type 'exceptions.IndexError'> list assignment index out of range"
p3
sS'layer'
p4
S'C:\\Users\\xsarah\\Desktop\\xborlandax\\University\\cs183\\web2py\\applications\\GameDayCalendar\\controllers/gamedata.py'
p5
sS'code'
p6
S'# pulls data about games and puts them into the database.\n\n#Key for Game database : https://market.mashape.com/igdbcom/internet-game-database\nIGBDkey = "kUe3uZXJcSmshT3CXf5O16Z7DPUjp1n5R0NjsnMr9K0qItyY2Q"\nIBGDurl= "https://igdbcom-internet-game-database-v1.p.mashape.com/"\n\n#URL for images\n#tesing: https://res.cloudinary.com/igdb/image/upload/t_cover_big/rm8orl3sh5bf7fe1oqvz.jpg\nIBGDimages = "https://res.cloudinary.com/igdb/image/upload/t_"\nSIZES ={\n\'thumb\': \'thumb\',\n\'small\': \'cover_big\',\n\'med\': \'screenshot_med\',\n\'large\': \'screenshot_huge\'\n}\n\n#all videos are from youtube\nIBGDvideo = "https://www.youtube.com/embed/"\n\nimport requests\nimport time, datetime,json,random,string\n\n#GLOBAL VARIABLES DON\'T TOUCH#\nMONTHS = {\'01\' : "January",\'02\' : "February",\'03\' : "March",\'04\' : "April",\'06\' : "May",\'07\' : "June",\'08\' : "July",\'09\' : "August",\'10\' : "September",\'11\' : "November",\'12\' : "December",\n}\nPLATFORMS ={\n"132" : "Amazon Fire TV", "131" : "Nintendo PlayStation", "130" : "NX", "129" : "Texas Instruments TI-99", "128" : "PC Engine SuperGrafx", "127" : "Fairchild Channel F", "126" : "TRS-80", "125" : "PC-8801", "124" : "SwanCrystal", "123" : "WonderSwan Color", "122" : "Nuon", "121" : "Sharp X68000", "120" : "Neo Geo Pocket Color", "119" : "Neo Geo Pocket", "118" : "FM Towns", "117" : "Philips CD-i", "116" : "Acorn Archimedes", "115" : "Apple IIGS", "114" : "Amiga CD32", "113" : "OnLive Game System", "112" : "Microcomputer", "111" : "Imlac PDS-1", "110" : "PLATO", "109" : "CDC Cyber 70", "108" : "PDP-11", "107" : "Call-A-Computer time-shared mainframe computer system", "106" : "SDS Sigma 7", "105" : "HP 3000", "104" : "HP 2100", "103" : "PDP-7", "102" : "EDSAC", "101" : "Ferranti Nimrod Computer", "100" : "Analogue electronics", "99" : "Family Computer", "98" : "DEC GT40", "97" : "PDP-8", "96" : "PDP-10", "95" : "PDP-1", "94" : "Commodore Plus/4", "93" : "Commodore 16", "92" : "SteamOS", "91" : "Bally Astrocade", "90" : "Commodore PET", "89" : "Microvision", "88" : "Odyssey", "87" : "Virtual Boy", "86" : "TurboGrafx-16/PC Engine", "85" : "Donner Model 30", "84" : "SG-1000", "82" : "Web browser", "80" : "Neo Geo AES", "79" : "Neo Geo MVS", "78" : "Sega CD", "77" : "Sharp X1", "75" : "Apple II", "74" : "Windows Phone", "73" : "BlackBerry OS", "72" : "Ouya", "71" : "Commodore VIC-20", "70" : "Vectrex", "69" : "BBC Microcomputer System", "68" : "ColecoVision", "67" : "Intellivision", "66" : "Atari 5200", "65" : "Atari 8-bit", "64" : "Sega Master System", "63" : "Atari ST/STE", "62" : "Atari Jaguar", "61" : "Atari Lynx", "60" : "Atari 7800", "59" : "Atari 2600", "58" : "Super Famicom", "57" : "WonderSwan", "56" : "WiiWare", "55" : "Mobile", "53" : "MSX2", "52" : "Arcade", "51" : "Family Computer Disk System", "50" : "3DO Interactive Multiplayer", "49" : "Xbox One", "48" : "PlayStation 4", "47" : "Virtual Console (Nintendo)", "46" : "PlayStation Vita", "45" : "PlayStation Network", "44" : "Tapwave Zodiac", "42" : "N-Gage", "41" : "Wii U", "39" : "iOS", "38" : "PlayStation Portable", "37" : "Nintendo 3DS", "36" : "Xbox Live Arcade", "35" : "Sega Game Gear", "34" : "Android", "33" : "Game Boy", "32" : "Sega Saturn", "30" : "Sega 32X", "29" : "Sega Mega Drive/Genesis", "27" : "MSX", "26" : "ZX Spectrum", "25" : "Amstrad CPC", "24" : "Game Boy Advance", "23" : "Dreamcast", "22" : "Game Boy Color", "21" : "Nintendo GameCube", "20" : "Nintendo DS", "19" : "Super Nintendo Entertainment System (SNES)", "18" : "Nintendo Entertainment System (NES)", "16" : "Amiga", "15" : "Commodore C64/128", "14" : "Mac", "13" : "PC DOS", "12" : "Xbox 360", "11" : "Xbox", "9" : "PlayStation 3", "8" : "PlayStation 2", "7" : "PlayStation", "6" : "PC (Microsoft Windows)", "5" : "Wii", "4" : "Nintendo 64", "3" : "Linux",    \n}\nREGIONS = {\n"8":"World Wide", "1":"Europe","2":"North America", "3":"Australia", "4":"New Zealand","5":"Japan","6":"China","7":"Asia"\n}\nTHEMES = {"1" : "Action", "17" : "Fantasy", "18" : "Science Fiction", "19" : "Horror", "20" : "Thriller", "21" : "Survival", "22" : "Historical", "23" : "Stealth", "27" : "Comedy", "28" : "Business", "31" : "Drama", "32" : "Non-fiction", "33" : "Sandbox", "34" : "Educational", "35" : "Kids", "38" : "Open World", "39" : "Warfare", "40" : "Party", "41" : "Explore", "42" : "Erotic", "43" : "Mystery"\n}\nGENRES = {"2" : "Point-and-click", "4" : "Fighting", "5" : "Shooter", "7" : "Music", "8" : "Platform", "9" : "Puzzle", "10" : "Racing", "11" : "Real Time Strategy (RTS)", "12" : "Role-playing (RPG)", "13" : "Simulator", "14" : "Sport", "15" : "Strategy", "16" : "Turn-based strategy (TBS)", "24" : "Tactical", "25" : "Hack and Slash/Beat \'em up", "26" : "Quiz/Trivia", "30" : "Pinball", "31" : "Adventure", "32" : "Indie", "33" : "Arcade"\n}\nGAMEMODES ={ "1":"Single Player", "2":"Multiplayer", "3":"Co-operative", "4":"Split Screen", "5":"MMO"\n}\n\n\n#Grabs the games that come out that month and year\n#Month is a value from 01 to 12 (MUST INCLUDE THE 0 for single digits)\n#Year is any valid year value\n@cache(request.env.path_info,time_expire=15,cache_model=cache.disk)\ndef get_games():\n    month = int(request.vars.month)\n    year = int(request.vars.year)\n\n    #handles Dec-Jan case where\n    #December overlaps with January\n    nextMonth=month+1\n    nextYear = year\n    if (month==12):\n        nextMonth = "01"\n        nextYear = year+1\n    month = str(month)\n    year = str(year)\n    nextMonth = str(nextMonth)\n    nextYear = str(nextYear)\n    \n    game_list=[]\n    \n    #Because we are only allowed to pull 50 objects per request, I split up\n    #the month into thirds to cover all the possible days of the month for new\n    #releases.\n    resWeekA = get_gamesHelper(year+"-"+month+"-01",year+"-"+month+"-10")\n    resWeekB = get_gamesHelper(year+"-"+month+"-11",year+"-"+month+"-20")\n    resWeekC = get_gamesHelper(year+"-"+month+"-21",nextYear+"-"+nextMonth+"-01")\n    #put all the weeks into a list for easy access\n    gameMonth = [resWeekA,resWeekB,resWeekC]\n    \n    #only grab the release days that lay between the month,\n    #this will allow us to compare the pulls\n    \n    timeStart = year+"-"+month+"-01"\n    timeFinish = nextYear+"-"+nextMonth+"-01"\n    pattern = \'%Y-%m-%d\'\n    epochStart =  int(time.mktime(time.strptime(timeStart, pattern)))\n    epochFinish =  int(time.mktime(time.strptime(timeFinish, pattern)))\n    \n    requestStatus = "OK"\n    \n    #Pulling current user\'s email so we can pull their list of games\n    #Empty list if the user is not logged in\n    logged_in = auth.user_id is not None\n    user_games_dict = None\n    if logged_in: \n        curuser_email = db(db.auth_user.id==auth.user_id).select().first().email\n        user_games_pull = db(db.user_games_list.user_id==curuser_email).select().first()\n        #If new user, create a record for them in the table...\n        if user_games_pull==None:\n            db.user_games_list.insert(user_id = curuser_email,games_list_json = {},)\n        else: #else set their record as the list of games to check\n            user_games_dict =user_games_pull[\'games_list_json\']\n    else:\n        curuser_email = None\n\n   \n    print curuser_email\n    #TODO: Throwing an error for a bad status code\n    if((resWeekA.status_code==200) and (resWeekB.status_code==200) and (resWeekC.status_code==200)):\n        #go through each week...\n        for week in gameMonth:\n            weekResponse = week.json()\n            for gameData in weekResponse:\n                #get the game\'s name/id \n                #and check if it\'s in the user\'s list. If it is,\n                #set user_game attr to \'minus\', else set it to \'plus\'.\n                #if not logged in, set it to \'null\'\n                if curuser_email is not None:\n                    game_in_user_list=\'plus\'\n                    if user_games_dict is not None:\n                        if str(gameData[\'id\']) in user_games_dict:\n                            game_in_user_list = \'minus\'\n                else:\n                    game_in_user_list = \'null\'\n                \n                \n                \n                game = dict(\n                    name = gameData[\'name\'].encode("utf-8"),\n                    id = gameData[\'id\'],\n                    game_in_list = game_in_user_list,\n                    release = [],\n                    coverThumb = "https://www.naplesgarden.org/wp-content/themes/naples_botanical/img/notfound.jpg",\n                    coverReg = "https://www.naplesgarden.org/wp-content/themes/naples_botanical/img/notfound.jpg"\n                )\n                \n                if "cover" in gameData:\n                    gameData[\'coverThumb\'] = IBGDimages+SIZES[\'thumb\']+"/"+res[\'cover\']["cloudinary_id"]+".jpg"\n                    gameData[\'coverReg\'] = IBGDimages+SIZES[\'small\']+"/"+res[\'cover\']["cloudinary_id"]+".jpg"\n                    \n                #the game\'s release date is divided up by information on\n                #region, platform and date. Region & Platform is added to global_variables\n                #See https://market.mashape.com/igdbcom/internet-game-database/overview\n                for releaseData in gameData[\'release_dates\']:\n                    s = int(releaseData[\'date\'])/1000.0\n                    realDate = datetime.datetime.fromtimestamp(s).strftime(\'%d-%m-%Y.%f\')\n                    #Only grab the relevant release dates\n                    if (s>=epochStart) and (s<epochFinish):\n                        gameRelease = dict(\n                            date = realDate,\n                            #get the platform name\n                            platform = PLATFORMS[str(releaseData[\'platform\'])],\n                            region = "World Wide"\n                        )\n                        if \'region\' in releaseData:\n                            gameRelease[\'region\']= REGIONS[str(releaseData[\'region\'])]\n                        game[\'release\'][0]=gameRelease\n                        game_list.append(game)\n        game_list = sorted(game_list, key = lambda k: k[\'release\'][0][\'date\'])\n    else:\n        StatusRequest = "ERROR"\n        \n   # for g in game_list:\n    #    print g\n    \n    return response.json(dict(\n        game_list=game_list,\n    ))\n\n#helper for get_games - pulls all the games that are going to be released between two dates\ndef get_gamesHelper(date1,date2):\n    #print IBGDurl+"?fields=name,release_dates&limit=50&filter[release_dates.date][gt]="+date1+"&filter[release_dates.date][lte]="+date2\n    response = requests.get(IBGDurl+"games/?fields=name,release_dates,cover&limit=50&filter[release_dates.date][gt]="+date1+"&filter[release_dates.date][lte]="+date2,\n        headers={\n            "X-Mashape-Key": IGBDkey,\n            "Accept": "application/json"\n        }\n    )\n    return response\n\n    \n#gets a single game\'s data using it\'s ID\n#@cache(request.env.path_info,time_expire=10,cache_model=cache.ram)\ndef get_game_data():\n    id = str(request.vars.id)\n    \n    rep= requests.get(IBGDurl+"games/"+id+"/?fields=name,summary,storyline,publishers,developers,release_dates,screenshots,cover,videos,themes,game_modes",\n        headers={\n            "X-Mashape-Key": IGBDkey,\n            "Accept": "application/json"\n        }\n    )\n    \n    responseStatus = "OK"\n    \n    \n    #pulls user\'s list of games\n    logged_in = auth.user_id is not None\n    user_games_dict = None\n    if logged_in: \n        curuser_email = db(db.auth_user.id==auth.user_id).select().first().email\n        user_games_pull = db(db.user_games_list.user_id==curuser_email).select().first()\n        #If new user, create a record for them in the table...\n        if user_games_pull==None:\n            db.user_games_list.insert(user_id = curuser_email,games_list_json = {},)\n            \n        else: #else set their record as the list of games to check\n            user_games_dict =user_games_pull[\'games_list_json\']\n    else:\n        curuser_email = None\n    \n   \n    \n     #returning a dictionary representation of\n     #the game\'s data.\n    game_data = dict(\n            name = "Game Name",\n            id = "0",\n            storyline = "Game Storyline not available.",\n            summary = "Game Summary not available.",\n            publishers=[],\n            developers=[],\n            videos=[],\n            screenshots = [],\n            release = [],\n            themes =[],\n            gameModes = [],\n            game_in_list = \'null\',\n            #TODO: replace temp cover not found image\n            coverThumb = "https://www.naplesgarden.org/wp-content/themes/naples_botanical/img/notfound.jpg",\n            coverReg = "https://www.naplesgarden.org/wp-content/themes/naples_botanical/img/notfound.jpg"\n         ) \n    print rep.status_code\n \n \n    if (rep.status_code==200):\n        \n         res = rep.json()[0]\n         \n         game_data["name"] = res[\'name\'].encode("utf-8")\n         game_data[\'id\'] =res[\'id\'] \n         #checks whether the game is in the user\'s list or not\n         if curuser_email is not None:\n            game_data[\'game_in_list\']=\'plus\'\n            if user_games_dict is not None:\n                if str(res[\'id\']) in user_games_dict:\n                    game_data[\'game_in_list\'] = \'minus\'\n         \n         #pulls game\'s list of likes/game postings\n         game_db_pull = db(db.games.game_id==game_data[\'id\']).select().first()\n         game_likes = []\n         #game_postings = []\n            #If game is newly selected, create a record for them in the game table...\n         if game_db_pull==None:\n              db.games.insert(game_id = game_data[\'id\'],game_likes_json = [],game_postings_json=[])\n            \n         else: #else pull the list of games and postings\n              game_likes = game_db_pull[\'game_likes_json\']\n                #game_postings = game_db_pull[\'game_postings_json\']\n         game_data[\'game_likes\']= len(game_likes)\n         \n         \n         if "summary" in res:\n            game_data["summary"]= res["summary"].encode("utf-8")\n        \n         if "storyline" in res:\n            game_data["storyline"] = res["storyline"].encode("utf-8")\n         if "cover" in res:\n            game_data[\'coverThumb\'] = IBGDimages+SIZES[\'thumb\']+"/"+res[\'cover\']["cloudinary_id"]+".jpg"\n            game_data[\'coverReg\'] = IBGDimages+SIZES[\'small\']+"/"+res[\'cover\']["cloudinary_id"]+".jpg"\n         \n         #gets publishers and developers for the game\n         if "publishers" in res:\n            pub = get_game_dataHelper(res["publishers"])\n            if pub is not None:\n                game_data["publishers"] = pub\n                \n         if "developers" in res:\n            dev = get_game_dataHelper(res["developers"])\n            if dev is not None:\n                game_data["developers"] = dev\n        \n         if "videos" in res:\n            for video in res["videos"]:\n                vid = dict(\n                    vidURL = IBGDvideo+video[\'video_id\'],\n                    vidName = video[\'name\'],\n                )\n                game_data["videos"].append(vid)\n                \n         if "screenshots" in res:   \n            for screenshot in res["screenshots"]:\n                img = dict(\n                    imgSmallURL = IBGDimages+SIZES[\'small\']+"/"+screenshot["cloudinary_id"]+".jpg",\n                    imgMediumURL = IBGDimages+SIZES[\'med\']+"/"+screenshot["cloudinary_id"]+".jpg",\n                    imgLargeURL = IBGDimages+SIZES[\'large\']+"/"+screenshot["cloudinary_id"]+".jpg",\n                )\n                game_data["screenshots"].append(img)\n            \n         for releaseData in res[\'release_dates\']:\n             s = int(releaseData[\'date\'])/1000.0\n             realDate = datetime.datetime.fromtimestamp(s).strftime(\'%d-%m-%Y.%f\')\n             gameRelease = dict(\n                   date = realDate,\n                   #get the platform name\n                   platform = PLATFORMS[str(releaseData[\'platform\'])],\n                   region = "World Wide"\n                   )\n             if \'region\' in releaseData:\n                   gameRelease[\'region\']= REGIONS[str(releaseData[\'region\'])]\n             game_data["release"].append(gameRelease)   \n        \n         if "themes" in res: \n            for theme in res["themes"]:\n                if THEMES[str(theme)] is not None:\n                    game_data["themes"].append(THEMES[str(theme)])\n         if "game_modes" in res: \n            for gameMode in res["game_modes"]:\n                if GAMEMODES[str(gameMode)] is not None:\n                    game_data["gameModes"].append(GAMEMODES[str(gameMode)])\n            \n    else:\n        responseStatus = "ERROR"\n\n    #print game_data\n    return response.json(dict(game_data=game_data))\n        \n        \n        \n#gets a developer/publisher name using id    \n#@cache(request.env.path_info,time_expire=10,cache_model=cache.ram)\ndef get_game_dataHelper(listIDs):\n    sID = ""\n    sIDlen = len(listIDs)\n    for id in listIDs:\n        if sIDlen >1:\n            sID = sID+str(id)+\',\'\n            sIDlen=sIDlen-1\n        else:\n            sID = sID+str(id)\n        \n    response = requests.get(IBGDurl+"companies/"+sID+"/?fields=name",\n        headers={\n            "X-Mashape-Key": IGBDkey,\n            "Accept": "application/json"\n        }\n    )\n    if (response.status_code==200):\n        res = response.json()\n        returnList = []\n        for r in res:\n            returnList.append(r["name"])\n        return returnList\n    else:\n        return None\n\n\n#################Database user\'s game list functions###############################################\n\n\n#given an id, adds a game to user\'s list\ndef add_game_to_userlist():\n\n    game_id=request.vars.id\n    game_name=request.vars.name\n    game_thumbnail=request.vars.thumb\n    #grabs user\'s email, the user\'s game list and database entry\n    curuser_email = db(db.auth_user.id==auth.user_id).select().first().email\n    user_games_dict = json.loads(db(db.user_games_list.user_id==curuser_email).select().first().games_list_json)\n    game_userlist_entry = db(db.user_games_list.user_id==curuser_email).select().first()\n\n   #creates dictionary for game info and adds game to user\'s list and updates database entry\n    #game_list_json -> key: game_id | value: {name, thumbnail}\n    add_game_dict = { \'name\':game_name, \'thumbnail\':game_thumbnail }\n    user_games_dict[game_id] = add_game_dict\n    game_userlist_entry.games_list_json = json.dumps(user_games_dict)\n    game_userlist_entry.update_record()\n    \n    #Gets the game\'s list of users that added the game to their list.\n    #appends the user\'s email to the list and returns \n    game_likes = db(db.games.game_id==game_id).select().first().game_likes_json\n    game_db_entry = db(db.games.game_id==game_id).select().first()\n    game_likes.append(curuser_email)\n    game_db_entry.game_likes_json = game_likes\n    game_db_entry.update_record()\n    like_count = len(game_likes)\n    \n    \n    game_list = user_games_list_helper(user_games_dict)\n    return response.json(dict(game_list=game_list,user_id=curuser_email,game_likes=like_count))\n \n\n#given an id, removes a game from user\'s list  \ndef rem_game_from_userlist():\n    game_id=request.vars.id\n    #grabs user\'s email, the user\'s game list and database entry\n    curuser_email = db(db.auth_user.id==auth.user_id).select().first().email\n    user_games_dict = json.loads(db(db.user_games_list.user_id==curuser_email).select().first().games_list_json)\n    game_list_entry = db(db.user_games_list.user_id==curuser_email).select().first()\n\n    #delete\'s game from user\'s list and updates database entry\n    del user_games_dict[game_id]\n    game_list_entry.games_list_json = json.dumps(user_games_dict)\n    game_list_entry.update_record()\n    \n    #Gets the game\'s list of users that added the game to their list.\n    #remove user\'s email from the game\'s list\n    game_likes = db(db.games.game_id==game_id).select().first().game_likes_json\n    game_db_entry = db(db.games.game_id==game_id).select().first()\n    game_likes.remove(curuser_email)\n    game_db_entry.game_likes_json = game_likes\n    game_db_entry.update_record()\n    like_count = len(game_likes)\n    \n    \n    game_list = user_games_list_helper(user_games_dict)\n    return response.json(dict(game_list=game_list,user_id=curuser_email,game_likes=like_count))\n\n\n#returns a list of the user\'s games\ndef get_games_from_userlist():\n    logged_in = auth.user_id is not None\n    user_games_dict = {}\n    curuser_email = \'null\'\n    if logged_in: \n        curuser_email = db(db.auth_user.id==auth.user_id).select().first().email\n        user_games_pull = db(db.user_games_list.user_id==curuser_email).select().first()\n        #If new user, create a record for them in the table...\n        if user_games_pull==None:\n            db.user_games_list.insert(user_id = curuser_email,games_list_json = {},)\n        else: #else set their record as the list of games\n            user_games_dict =  json.loads(db(db.user_games_list.user_id==curuser_email).select().first().games_list_json)\n    \n    game_list = user_games_list_helper(user_games_dict)\n    return response.json(dict(game_list=game_list,user_id=curuser_email))\n\ndef user_games_list_helper(user_games_dict):\n    #not the most optimal solution, but works for now.\n    game_list = []\n    \n    for key in user_games_dict.keys():\n        data = {}\n        data[\'thumb\']=user_games_dict[key][\'thumbnail\']\n        data[\'name\']=user_games_dict[key][\'name\']\n        data[\'id\']=key\n        game_list.append(data)\n    game_list = sorted(game_list, key = lambda k: k[\'name\'][0])\n    return game_list\n\n\n###########Game postings functions##########################    \ndef get_game_postings():\n    game_id=request.vars.game_id\n    navi=request.vars.navi\n    curIndex=int(request.vars.curIndex)\n    print "CURRENT INDEX"\n    print curIndex\n    #check if the user is logged in\n    logged_in = auth.user_id is not None\n    if logged_in: \n        curuser_email = db(db.auth_user.id==auth.user_id).select().first().email\n    else:\n        curuser_email = None\n        \n    #get the list of postings from the list of games\n    game_postings = db(db.games.game_id==game_id).select().first().game_postings_json\n    game_postings = sorted(game_postings, key = lambda k: k[\'created_on\'],reverse=True)\n    num_of_posts = len(game_postings)\n    \n    has_more = True\n    has_less = True\n    max_post = 0\n    min_post = 0\n    post_list = []\n    \n    \n    if navi == \'more\':\n        max_post = curIndex+4\n        inx=curIndex+4\n        min_post = curIndex\n        \n            \n    if navi =="less":\n        min_post = curIndex-4\n        inx=curIndex-4\n        max_post = curIndex\n     \n    #if (inx%4==0):\n    #    inx=num_of_posts\n    #    has_more = False\n    #else:\n    #    inx=curIndex\n     \n    if (max_post >= num_of_posts):\n            max_post=num_of_posts\n            has_more= False\n\n    if (min_post <= 0):\n            min_post=0\n            inx=4\n            has_less = False\n     \n\n    index= min_post\n    while (index!=max_post):\n        post_user = db(db.auth_user.email == game_postings[index][\'user_email\']).select().first()\n        posts_name= post_user.first_name + \' \' + post_user.last_name\n        \n        if curuser_email == game_postings[index][\'user_email\']:\n                belong_to_user = True\n        else:\n                belong_to_user = False\n                \n        post = dict(\n                user_email = game_postings[index][\'user_email\'],\n                post_name = posts_name,\n                post_content = game_postings[index][\'post_content\'],\n                created_on = game_postings[index][\'created_on\'],\n                id = game_postings[index][\'id\'],\n                belongs_to_user = belong_to_user\n            )\n        post_list.append(post)      \n        index = index+1\n\n    return response.json(dict(posts=post_list,has_more=has_more,has_less=has_less,currentIndex=inx))\n    \ndef add_game_postings():\n    game_id=request.vars.game_id\n    user_email=request.vars.user_email\n    post_content=request.vars.post_content\n\n    game_postings = db(db.games.game_id==game_id).select().first().game_postings_json\n    game_db_entry = db(db.games.game_id==game_id).select().first()\n    post = {}\n    post[\'user_email\']=user_email\n    post[\'created_on\']= datetime.datetime.utcnow()\n    post[\'post_content\']=post_content\n    #generates random id for post \n    post[\'id\']= \'\'.join([random.choice(string.ascii_letters + string.digits) for n in xrange(15)])\n    \n    game_postings.append(post)\n    game_db_entry.game_postings_json = game_postings\n    game_db_entry.update_record()\n\n    return "ok"\n\ndef rem_game_postings():\n    game_id=request.vars.game_id\n    post_id=request.vars.post_id\n\n    game_postings = db(db.games.game_id==game_id).select().first().game_postings_json\n    game_db_entry = db(db.games.game_id==game_id).select().first()\n    \n    for i in range(len(game_postings)):\n        if game_postings[i][\'id\'] == post_id:\n            del game_postings[i]\n            break\n    game_db_entry.game_postings_json = game_postings\n    game_db_entry.update_record()\n    \n    return "ok"\n#testing\n#get_games(11,2016)\n#get_game_data(\'359\')\n\n\n\n\n\n\nresponse._vars=response._caller(get_games)\n'
p7
sS'snapshot'
p8
(dp9
S'exception'
p10
(dp11
S'__hash__'
p12
S"<method-wrapper '__hash__' of exceptions.IndexError object>"
p13
sS'__setattr__'
p14
S"<method-wrapper '__setattr__' of exceptions.IndexError object>"
p15
sS'__reduce_ex__'
p16
S'<built-in method __reduce_ex__ of exceptions.IndexError object>'
p17
sS'__getslice__'
p18
S"<method-wrapper '__getslice__' of exceptions.IndexError object>"
p19
sS'__getitem__'
p20
S"<method-wrapper '__getitem__' of exceptions.IndexError object>"
p21
sS'__setstate__'
p22
S'<built-in method __setstate__ of exceptions.IndexError object>'
p23
sS'__reduce__'
p24
S'<built-in method __reduce__ of exceptions.IndexError object>'
p25
sS'__str__'
p26
S"<method-wrapper '__str__' of exceptions.IndexError object>"
p27
sS'__format__'
p28
S'<built-in method __format__ of exceptions.IndexError object>'
p29
sS'__getattribute__'
p30
S"<method-wrapper '__getattribute__' of exceptions.IndexError object>"
p31
sS'__class__'
p32
S"<type 'exceptions.IndexError'>"
p33
sS'__unicode__'
p34
S'<built-in method __unicode__ of exceptions.IndexError object>'
p35
sS'__delattr__'
p36
S"<method-wrapper '__delattr__' of exceptions.IndexError object>"
p37
sS'__subclasshook__'
p38
S'<built-in method __subclasshook__ of type object>'
p39
sS'__repr__'
p40
S"<method-wrapper '__repr__' of exceptions.IndexError object>"
p41
sS'args'
p42
S"('list assignment index out of range',)"
p43
sS'__dict__'
p44
S'{}'
p45
sS'__sizeof__'
p46
S'<built-in method __sizeof__ of exceptions.IndexError object>'
p47
sS'__doc__'
p48
S"'Sequence index out of range.'"
p49
sS'__init__'
p50
S"<method-wrapper '__init__' of exceptions.IndexError object>"
p51
sS'__new__'
p52
S'<built-in method __new__ of type object>'
p53
ssS'evalue'
p54
S'list assignment index out of range'
p55
sS'request'
p56
cgluon.html
XML_unpickle
p57
(S's\xd3x\x00\x00<div><table><tr><td style="font-weight:bold;vertical-align:top;">ajax</td><td style="vertical-align:top;">:</td><td><div>False</div></td></tr><tr><td style="font-weight:bold;vertical-align:top;">application</td><td style="vertical-align:top;">:</td><td><div>GameDayCalendar</div></td></tr><tr><td style="font-weight:bold;vertical-align:top;">args</td><td style="vertical-align:top;">:</td><td><div><table></table></div></td></tr><tr><td style="font-weight:bold;vertical-align:top;">cid</td><td style="vertical-align:top;">:</td><td><div>None</div></td></tr><tr><td style="font-weight:bold;vertical-align:top;">client</td><td style="vertical-align:top;">:</td><td><div>127.0.0.1</div></td></tr><tr><td style="font-weight:bold;vertical-align:top;">controller</td><td style="vertical-align:top;">:</td><td><div>gamedata</div></td></tr><tr><td style="font-weight:bold;vertical-align:top;">cookies</td><td style="vertical-align:top;">:</td><td><div><table><tr><td style="font-weight:bold;vertical-align:top;">session_id_4</td><td style="vertical-align:top;">:</td><td><div>1:90efbcb9-077b-4a9d-bd14-b68e095c5b73<table><tr><td style="font-weight:bold;vertical-align:top;">comment</td><td style="vertical-align:top;">:</td><td><div></div></td></tr><tr><td style="font-weight:bold;vertical-align:top;">domain</td><td style="vertical-align:top;">:</td><td><div></div></td></tr><tr><td style="font-weight:bold;vertical-align:top;">expires</td><td style="vertical-align:top;">:</td><td><div></div></td></tr><tr><td style="font-weight:bold;vertical-align:top;">httponly</td><td style="vertical-align:top;">:</td><td><div></div></td></tr><tr><td style="font-weight:bold;vertical-align:top;">max-age</td><td style="vertical-align:top;">:</td><td><div></div></td></tr><tr><td style="font-weight:bold;vertical-align:top;">path</td><td style="vertical-align:top;">:</td><td><div></div></td></tr><tr><td style="font-weight:bold;vertical-align:top;">secure</td><td style="vertical-align:top;">:</td><td><div></div></td></tr><tr><td style="font-weight:bold;vertical-align:top;">version</td><td style="vertical-align:top;">:</td><td><div></div></td></tr></table></div></td></tr><tr><td style="font-weight:bold;vertical-align:top;">session_id_a1</td><td style="vertical-align:top;">:</td><td><div>2:485a83e4-ecc3-4b65-a537-84513d4c157c<table><tr><td style="font-weight:bold;vertical-align:top;">comment</td><td style="vertical-align:top;">:</td><td><div></div></td></tr><tr><td style="font-weight:bold;vertical-align:top;">domain</td><td style="vertical-align:top;">:</td><td><div></div></td></tr><tr><td style="font-weight:bold;vertical-align:top;">expires</td><td style="vertical-align:top;">:</td><td><div></div></td></tr><tr><td style="font-weight:bold;vertical-align:top;">httponly</td><td style="vertical-align:top;">:</td><td><div></div></td></tr><tr><td style="font-weight:bold;vertical-align:top;">max-age</td><td style="vertical-align:top;">:</td><td><div></div></td></tr><tr><td style="font-weight:bold;vertical-align:top;">path</td><td style="vertical-align:top;">:</td><td><div></div></td></tr><tr><td style="font-weight:bold;vertical-align:top;">secure</td><td style="vertical-align:top;">:</td><td><div></div></td></tr><tr><td style="font-weight:bold;vertical-align:top;">version</td><td style="vertical-align:top;">:</td><td><div></div></td></tr></table></div></td></tr><tr><td style="font-weight:bold;vertical-align:top;">session_id_a2</td><td style="vertical-align:top;">:</td><td><div>1:51376efa-ae91-45f8-b29f-97ee8f62699a<table><tr><td style="font-weight:bold;vertical-align:top;">comment</td><td style="vertical-align:top;">:</td><td><div></div></td></tr><tr><td style="font-weight:bold;vertical-align:top;">domain</td><td style="vertical-align:top;">:</td><td><div></div></td></tr><tr><td style="font-weight:bold;vertical-align:top;">expires</td><td style="vertical-align:top;">:</td><td><div></div></td></tr><tr><td style="font-weight:bold;vertical-align:top;">httponly</td><td style="vertical-align:top;">:</td><td><div></div></td></tr><tr><td style="font-weight:bold;vertical-align:top;">max-age</td><td style="vertical-align:top;">:</td><td><div></div></td></tr><tr><td style="font-weight:bold;vertical-align:top;">path</td><td style="vertical-align:top;">:</td><td><div></div></td></tr><tr><td style="font-weight:bold;vertical-align:top;">secure</td><td style="vertical-align:top;">:</td><td><div></div></td></tr><tr><td style="font-weight:bold;vertical-align:top;">version</td><td style="vertical-align:top;">:</td><td><div></div></td></tr></table></div></td></tr><tr><td style="font-weight:bold;vertical-align:top;">session_id_admin</td><td style="vertical-align:top;">:</td><td><div>127.0.0.1-2089b4d5-67a7-4ad3-83ae-d555b1549e36<table><tr><td style="font-weight:bold;vertical-align:top;">comment</td><td style="vertical-align:top;">:</td><td><div></div></td></tr><tr><td style="font-weight:bold;vertical-align:top;">domain</td><td style="vertical-align:top;">:</td><td><div></div></td></tr><tr><td style="font-weight:bold;vertical-align:top;">expires</td><td style="vertical-align:top;">:</td><td><div></div></td></tr><tr><td style="font-weight:bold;vertical-align:top;">httponly</td><td style="vertical-align:top;">:</td><td><div></div></td></tr><tr><td style="font-weight:bold;vertical-align:top;">max-age</td><td style="vertical-align:top;">:</td><td><div></div></td></tr><tr><td style="font-weight:bold;vertical-align:top;">path</td><td style="vertical-align:top;">:</td><td><div></div></td></tr><tr><td style="font-weight:bold;vertical-align:top;">secure</td><td style="vertical-align:top;">:</td><td><div></div></td></tr><tr><td style="font-weight:bold;vertical-align:top;">version</td><td style="vertical-align:top;">:</td><td><div></div></td></tr></table></div></td></tr><tr><td style="font-weight:bold;vertical-align:top;">session_id_gamedaycalendar</td><td style="vertical-align:top;">:</td><td><div>23:b38952d1-a3da-41e5-a3da-0e6c9d257552<table><tr><td style="font-weight:bold;vertical-align:top;">comment</td><td style="vertical-align:top;">:</td><td><div></div></td></tr><tr><td style="font-weight:bold;vertical-align:top;">domain</td><td style="vertical-align:top;">:</td><td><div></div></td></tr><tr><td style="font-weight:bold;vertical-align:top;">expires</td><td style="vertical-align:top;">:</td><td><div></div></td></tr><tr><td style="font-weight:bold;vertical-align:top;">httponly</td><td style="vertical-align:top;">:</td><td><div></div></td></tr><tr><td style="font-weight:bold;vertical-align:top;">max-age</td><td style="vertical-align:top;">:</td><td><div></div></td></tr><tr><td style="font-weight:bold;vertical-align:top;">path</td><td style="vertical-align:top;">:</td><td><div></div></td></tr><tr><td style="font-weight:bold;vertical-align:top;">secure</td><td style="vertical-align:top;">:</td><td><div></div></td></tr><tr><td style="font-weight:bold;vertical-align:top;">version</td><td style="vertical-align:top;">:</td><td><div></div></td></tr></table></div></td></tr><tr><td style="font-weight:bold;vertical-align:top;">session_id_veryimportant</td><td style="vertical-align:top;">:</td><td><div>1:2e32496f-f495-4815-9dce-cfbe59efd67e<table><tr><td style="font-weight:bold;vertical-align:top;">comment</td><td style="vertical-align:top;">:</td><td><div></div></td></tr><tr><td style="font-weight:bold;vertical-align:top;">domain</td><td style="vertical-align:top;">:</td><td><div></div></td></tr><tr><td style="font-weight:bold;vertical-align:top;">expires</td><td style="vertical-align:top;">:</td><td><div></div></td></tr><tr><td style="font-weight:bold;vertical-align:top;">httponly</td><td style="vertical-align:top;">:</td><td><div></div></td></tr><tr><td style="font-weight:bold;vertical-align:top;">max-age</td><td style="vertical-align:top;">:</td><td><div></div></td></tr><tr><td style="font-weight:bold;vertical-align:top;">path</td><td style="vertical-align:top;">:</td><td><div></div></td></tr><tr><td style="font-weight:bold;vertical-align:top;">secure</td><td style="vertical-align:top;">:</td><td><div></div></td></tr><tr><td style="font-weight:bold;vertical-align:top;">version</td><td style="vertical-align:top;">:</td><td><div></div></td></tr></table></div></td></tr><tr><td style="font-weight:bold;vertical-align:top;">session_id_welcome</td><td style="vertical-align:top;">:</td><td><div>127.0.0.1-c3a75be0-68ab-46c8-9836-201e0a2ee953<table><tr><td style="font-weight:bold;vertical-align:top;">comment</td><td style="vertical-align:top;">:</td><td><div></div></td></tr><tr><td style="font-weight:bold;vertical-align:top;">domain</td><td style="vertical-align:top;">:</td><td><div></div></td></tr><tr><td style="font-weight:bold;vertical-align:top;">expires</td><td style="vertical-align:top;">:</td><td><div></div></td></tr><tr><td style="font-weight:bold;vertical-align:top;">httponly</td><td style="vertical-align:top;">:</td><td><div></div></td></tr><tr><td style="font-weight:bold;vertical-align:top;">max-age</td><td style="vertical-align:top;">:</td><td><div></div></td></tr><tr><td style="font-weight:bold;vertical-align:top;">path</td><td style="vertical-align:top;">:</td><td><div></div></td></tr><tr><td style="font-weight:bold;vertical-align:top;">secure</td><td style="vertical-align:top;">:</td><td><div></div></td></tr><tr><td style="font-weight:bold;vertical-align:top;">version</td><td style="vertical-align:top;">:</td><td><div></div></td></tr></table></div></td></tr></table></div></td></tr><tr><td style="font-weight:bold;vertical-align:top;">env</td><td style="vertical-align:top;">:</td><td><div><table><tr><td style="font-weight:bold;vertical-align:top;">HTTP_ACCEPT</td><td style="vertical-align:top;">:</td><td><div>text/html,application/xhtml+xml,application/xml;q=0.9,image/webp,*/*;q=0.8</div></td></tr><tr><td style="font-weight:bold;vertical-align:top;">HTTP_ACCEPT_ENCODING</td><td style="vertical-align:top;">:</td><td><div>gzip, deflate, sdch, br</div></td></tr><tr><td style="font-weight:bold;vertical-align:top;">HTTP_ACCEPT_LANGUAGE</td><td style="vertical-align:top;">:</td><td><div>en-US,en;q=0.8</div></td></tr><tr><td style="font-weight:bold;vertical-align:top;">HTTP_CACHE_CONTROL</td><td style="vertical-align:top;">:</td><td><div>max-age=0</div></td></tr><tr><td style="font-weight:bold;vertical-align:top;">HTTP_CONNECTION</td><td style="vertical-align:top;">:</td><td><div>keep-alive</div></td></tr><tr><td style="font-weight:bold;vertical-align:top;">HTTP_COOKIE</td><td style="vertical-align:top;">:</td><td><div>session_id_4=&quot;1:90efbcb9-077b-4a9d-bd14-b68e095c5b73&quot;; session_id_welcome=127.0.0.1-c3a75be0-68ab-46c8-9836-201e0a2ee953; session_id_veryimportant=&quot;1:2e32496f-f495-4815-9dce-cfbe59efd67e&quot;; session_id_a1=&quot;2:485a83e4-ecc3-4b65-a537-84513d4c157c&quot;; session_id_a2=&quot;1:51376efa-ae91-45f8-b29f-97ee8f62699a&quot;; session_id_gamedaycalendar=&quot;23:b38952d1-a3da-41e5-a3da-0e6c9d257552&quot;; session_id_admin=127.0.0.1-2089b4d5-67a7-4ad3-83ae-d555b1549e36</div></td></tr><tr><td style="font-weight:bold;vertical-align:top;">HTTP_HOST</td><td style="vertical-align:top;">:</td><td><div>127.0.0.1:8000</div></td></tr><tr><td style="font-weight:bold;vertical-align:top;">HTTP_UPGRADE_INSECURE_REQUESTS</td><td style="vertical-align:top;">:</td><td><div>1</div></td></tr><tr><td style="font-weight:bold;vertical-align:top;">HTTP_USER_AGENT</td><td style="vertical-align:top;">:</td><td><div>Mozilla/5.0 (Windows NT 6.3; WOW64) AppleWebKit/537.36 (KHTML, like Gecko) Chrome/54.0.2840.99 Safari/537.36</div></td></tr><tr><td style="font-weight:bold;vertical-align:top;">PATH_INFO</td><td style="vertical-align:top;">:</td><td><div>/GameDayCalendar/gamedata/get_games</div></td></tr><tr><td style="font-weight:bold;vertical-align:top;">QUERY_STRING</td><td style="vertical-align:top;">:</td><td><div>month=11&amp;year=2016</div></td></tr><tr><td style="font-weight:bold;vertical-align:top;">REMOTE_ADDR</td><td style="vertical-align:top;">:</td><td><div>127.0.0.1</div></td></tr><tr><td style="font-weight:bold;vertical-align:top;">REMOTE_PORT</td><td style="vertical-align:top;">:</td><td><div>50055</div></td></tr><tr><td style="font-weight:bold;vertical-align:top;">REQUEST_METHOD</td><td style="vertical-align:top;">:</td><td><div>GET</div></td></tr><tr><td style="font-weight:bold;vertical-align:top;">SCRIPT_NAME</td><td style="vertical-align:top;">:</td><td><div></div></td></tr><tr><td style="font-weight:bold;vertical-align:top;">SERVER_NAME</td><td style="vertical-align:top;">:</td><td><div>SAB</div></td></tr><tr><td style="font-weight:bold;vertical-align:top;">SERVER_PORT</td><td style="vertical-align:top;">:</td><td><div>8000</div></td></tr><tr><td style="font-weight:bold;vertical-align:top;">SERVER_PROTOCOL</td><td style="vertical-align:top;">:</td><td><div>HTTP/1.1</div></td></tr><tr><td style="font-weight:bold;vertical-align:top;">SERVER_SOFTWARE</td><td style="vertical-align:top;">:</td><td><div>Rocket 1.2.6</div></td></tr><tr><td style="font-weight:bold;vertical-align:top;">app_folders</td><td style="vertical-align:top;">:</td><td><div>set([&#x27;C:\\\\Users\\\\xsarah\\\\Desktop\\\\xborlandax\\\\University\\\\cs183\\\\web2py\\\\applications\\\\Veryimportant\\\\&#x27;, &#x27;C:\\\\Users\\\\xsarah\\\\Desktop\\\\xborlandax\\\\University\\\\cs183\\\\web2py\\\\applications\\\\a2\\\\&#x27;, &#x27;C:\\\\Users\\\\xsarah\\\\Desktop\\\\xborlandax\\\\University\\\\cs183\\\\web2py\\\\applications\\\\welcome\\\\&#x27;, &#x27;C:\\\\Users\\\\xsarah\\\\Desktop\\\\xborlandax\\\\University\\\\cs183\\\\web2py\\\\applications\\\\GameDayCalendar\\\\&#x27;, &#x27;C:\\\\Users\\\\xsarah\\\\Desktop\\\\xborlandax\\\\University\\\\cs183\\\\web2py\\\\applications\\\\admin\\\\&#x27;, &#x27;C:\\\\Users\\\\xsarah\\\\Desktop\\\\xborlandax\\\\University\\\\cs183\\\\web2py\\\\applications\\\\4\\\\&#x27;, &#x27;C:\\\\Users\\\\xsarah\\\\Desktop\\\\xborlandax\\\\University\\\\cs183\\\\web2py\\\\applications\\\\a1\\\\&#x27;])</div></td></tr><tr><td style="font-weight:bold;vertical-align:top;">applications_parent</td><td style="vertical-align:top;">:</td><td><div>C:\\Users\\xsarah\\Desktop\\xborlandax\\University\\cs183\\web2py</div></td></tr><tr><td style="font-weight:bold;vertical-align:top;">cmd_args</td><td style="vertical-align:top;">:</td><td><div><table></table></div></td></tr><tr><td style="font-weight:bold;vertical-align:top;">cmd_options</td><td style="vertical-align:top;">:</td><td><div>&lt;Values at 0x381ffa8: {&#x27;verbose&#x27;: False, &#x27;ip&#x27;: &#x27;127.0.0.1&#x27;, &#x27;debuglevel&#x27;: 30, &#x27;with_scheduler&#x27;: False, &#x27;shutdown_timeout&#x27;: 5, &#x27;taskbar&#x27;: False, &#x27;with_coverage&#x27;: False, &#x27;pid_filename&#x27;: &#x27;httpserver.pid&#x27;, &#x27;maxthreads&#x27;: None, &#x27;softcron&#x27;: False, &#x27;server_name&#x27;: &#x27;SAB&#x27;, &#x27;bpython&#x27;: False, &#x27;nogui&#x27;: False, &#x27;port&#x27;: 8000, &#x27;print_errors&#x27;: False, &#x27;extcron&#x27;: False, &#x27;runcron&#x27;: False, &#x27;run_system_tests&#x27;: False, &#x27;test&#x27;: None, &#x27;folder&#x27;: &#x27;C:\\\\Users\\\\xsarah\\\\Desktop\\\\xborlandax\\\\University\\\\cs183\\\\web2py&#x27;, &#x27;config&#x27;: &#x27;&#x27;, &#x27;minthreads&#x27;: None, &#x27;shell&#x27;: None, &#x27;run&#x27;: &#x27;&#x27;, &#x27;log_filename&#x27;: &#x27;httpserver.log&#x27;, &#x27;profiler_dir&#x27;: None, &#x27;args&#x27;: [&#x27;&#x27;], &#x27;socket_timeout&#x27;: 5, &#x27;ssl_ca_certificate&#x27;: None, &#x27;scheduler&#x27;: None, &#x27;interfaces&#x27;: None, &#x27;ssl_private_key&#x27;: &#x27;&#x27;, &#x27;gae&#x27;: None, &#x27;password&#x27;: &#x27;******&#x27;, &#x27;request_queue_size&#x27;: 5, &#x27;ssl_certificate&#x27;: &#x27;&#x27;, &#x27;cronjob&#x27;: False, &#x27;numthreads&#x27;: None, &#x27;quiet&#x27;: False, &#x27;import_models&#x27;: False, &#x27;timeout&#x27;: 10, &#x27;plain&#x27;: False, &#x27;nobanner&#x27;: False}&gt;</div></td></tr><tr><td style="font-weight:bold;vertical-align:top;">db_sessions</td><td style="vertical-align:top;">:</td><td><div>set([&#x27;a1&#x27;, &#x27;Veryimportant&#x27;, &#x27;4&#x27;, &#x27;a2&#x27;, &#x27;GameDayCalendar&#x27;])</div></td></tr><tr><td style="font-weight:bold;vertical-align:top;">debugging</td><td style="vertical-align:top;">:</td><td><div>True</div></td></tr><tr><td style="font-weight:bold;vertical-align:top;">gluon_parent</td><td style="vertical-align:top;">:</td><td><div>C:\\Users\\xsarah\\Desktop\\xborlandax\\University\\cs183\\web2py</div></td></tr><tr><td style="font-weight:bold;vertical-align:top;">http_accept</td><td style="vertical-align:top;">:</td><td><div>text/html,application/xhtml+xml,application/xml;q=0.9,image/webp,*/*;q=0.8</div></td></tr><tr><td style="font-weight:bold;vertical-align:top;">http_accept_encoding</td><td style="vertical-align:top;">:</td><td><div>gzip, deflate, sdch, br</div></td></tr><tr><td style="font-weight:bold;vertical-align:top;">http_accept_language</td><td style="vertical-align:top;">:</td><td><div>en-US,en;q=0.8</div></td></tr><tr><td style="font-weight:bold;vertical-align:top;">http_cache_control</td><td style="vertical-align:top;">:</td><td><div>max-age=0</div></td></tr><tr><td style="font-weight:bold;vertical-align:top;">http_connection</td><td style="vertical-align:top;">:</td><td><div>keep-alive</div></td></tr><tr><td style="font-weight:bold;vertical-align:top;">http_cookie</td><td style="vertical-align:top;">:</td><td><div>session_id_4=&quot;1:90efbcb9-077b-4a9d-bd14-b68e095c5b73&quot;; session_id_welcome=127.0.0.1-c3a75be0-68ab-46c8-9836-201e0a2ee953; session_id_veryimportant=&quot;1:2e32496f-f495-4815-9dce-cfbe59efd67e&quot;; session_id_a1=&quot;2:485a83e4-ecc3-4b65-a537-84513d4c157c&quot;; session_id_a2=&quot;1:51376efa-ae91-45f8-b29f-97ee8f62699a&quot;; session_id_gamedaycalendar=&quot;23:b38952d1-a3da-41e5-a3da-0e6c9d257552&quot;; session_id_admin=127.0.0.1-2089b4d5-67a7-4ad3-83ae-d555b1549e36</div></td></tr><tr><td style="font-weight:bold;vertical-align:top;">http_host</td><td style="vertical-align:top;">:</td><td><div>127.0.0.1:8000</div></td></tr><tr><td style="font-weight:bold;vertical-align:top;">http_upgrade_insecure_requests</td><td style="vertical-align:top;">:</td><td><div>1</div></td></tr><tr><td style="font-weight:bold;vertical-align:top;">http_user_agent</td><td style="vertical-align:top;">:</td><td><div>Mozilla/5.0 (Windows NT 6.3; WOW64) AppleWebKit/537.36 (KHTML, like Gecko) Chrome/54.0.2840.99 Safari/537.36</div></td></tr><tr><td style="font-weight:bold;vertical-align:top;">is_jython</td><td style="vertical-align:top;">:</td><td><div>False</div></td></tr><tr><td style="font-weight:bold;vertical-align:top;">is_pypy</td><td style="vertical-align:top;">:</td><td><div>False</div></td></tr><tr><td style="font-weight:bold;vertical-align:top;">is_source</td><td style="vertical-align:top;">:</td><td><div>True</div></td></tr><tr><td style="font-weight:bold;vertical-align:top;">local_hosts</td><td style="vertical-align:top;">:</td><td><div><table><tr><td><div>192.168.1.27</div></td></tr><tr><td><div>SAB</div></td></tr><tr><td><div>::ffff:127.0.0.1</div></td></tr><tr><td><div>::1</div></td></tr><tr><td><div>fe80::f907:4247:a6c1:59ac%8</div></td></tr><tr><td><div>2001:0:9d38:90d7:2063:3ff8:9d07:30a7</div></td></tr><tr><td><div>192.168.56.1</div></td></tr><tr><td><div>fe80::bceb:fcc3:2a79:f927%3</div></td></tr><tr><td><div>127.0.0.1</div></td></tr><tr><td><div>fe80::2063:3ff8:9d07:30a7%5</div></td></tr></table></div></td></tr><tr><td style="font-weight:bold;vertical-align:top;">path_info</td><td style="vertical-align:top;">:</td><td><div>/GameDayCalendar/gamedata/get_games</div></td></tr><tr><td style="font-weight:bold;vertical-align:top;">query_string</td><td style="vertical-align:top;">:</td><td><div>month=11&amp;year=2016</div></td></tr><tr><td style="font-weight:bold;vertical-align:top;">remote_addr</td><td style="vertical-align:top;">:</td><td><div>127.0.0.1</div></td></tr><tr><td style="font-weight:bold;vertical-align:top;">remote_port</td><td style="vertical-align:top;">:</td><td><div>50055</div></td></tr><tr><td style="font-weight:bold;vertical-align:top;">request_method</td><td style="vertical-align:top;">:</td><td><div>GET</div></td></tr><tr><td style="font-weight:bold;vertical-align:top;">request_uri</td><td style="vertical-align:top;">:</td><td><div>/GameDayCalendar/gamedata/get_games?month=11&amp;year=2016</div></td></tr><tr><td style="font-weight:bold;vertical-align:top;">script_name</td><td style="vertical-align:top;">:</td><td><div></div></td></tr><tr><td style="font-weight:bold;vertical-align:top;">server_name</td><td style="vertical-align:top;">:</td><td><div>SAB</div></td></tr><tr><td style="font-weight:bold;vertical-align:top;">server_port</td><td style="vertical-align:top;">:</td><td><div>8000</div></td></tr><tr><td style="font-weight:bold;vertical-align:top;">server_protocol</td><td style="vertical-align:top;">:</td><td><div>HTTP/1.1</div></td></tr><tr><td style="font-weight:bold;vertical-align:top;">server_software</td><td style="vertical-align:top;">:</td><td><div>Rocket 1.2.6</div></td></tr><tr><td style="font-weight:bold;vertical-align:top;">web2py_path</td><td style="vertical-align:top;">:</td><td><div>C:\\Users\\xsarah\\Desktop\\xborlandax\\University\\cs183\\web2py</div></td></tr><tr><td style="font-weight:bold;vertical-align:top;">web2py_version</td><td style="vertical-align:top;">:</td><td><div>2.14.6-stable+timestamp.2016.05.10.00.21.47</div></td></tr><tr><td style="font-weight:bold;vertical-align:top;">wsgi.errors</td><td style="vertical-align:top;">:</td><td><div>&lt;open file &#x27;&lt;stderr&gt;&#x27;, mode &#x27;w&#x27; at 0x0271D0D0&gt;</div></td></tr><tr><td style="font-weight:bold;vertical-align:top;">wsgi.file_wrapper</td><td style="vertical-align:top;">:</td><td><div>&lt;class wsgiref.util.FileWrapper at 0x037DFB58&gt;</div></td></tr><tr><td style="font-weight:bold;vertical-align:top;">wsgi.input</td><td style="vertical-align:top;">:</td><td><div>&lt;socket._fileobject object at 0x0A3E9970&gt;</div></td></tr><tr><td style="font-weight:bold;vertical-align:top;">wsgi.multiprocess</td><td style="vertical-align:top;">:</td><td><div>False</div></td></tr><tr><td style="font-weight:bold;vertical-align:top;">wsgi.multithread</td><td style="vertical-align:top;">:</td><td><div>True</div></td></tr><tr><td style="font-weight:bold;vertical-align:top;">wsgi.run_once</td><td style="vertical-align:top;">:</td><td><div>False</div></td></tr><tr><td style="font-weight:bold;vertical-align:top;">wsgi.url_scheme</td><td style="vertical-align:top;">:</td><td><div>http</div></td></tr><tr><td style="font-weight:bold;vertical-align:top;">wsgi.version</td><td style="vertical-align:top;">:</td><td><div><table><tr><td><div>1</div></td></tr><tr><td><div>0</div></td></tr></table></div></td></tr><tr><td style="font-weight:bold;vertical-align:top;">wsgi_errors</td><td style="vertical-align:top;">:</td><td><div>&lt;open file &#x27;&lt;stderr&gt;&#x27;, mode &#x27;w&#x27; at 0x0271D0D0&gt;</div></td></tr><tr><td style="font-weight:bold;vertical-align:top;">wsgi_file_wrapper</td><td style="vertical-align:top;">:</td><td><div>&lt;class wsgiref.util.FileWrapper at 0x037DFB58&gt;</div></td></tr><tr><td style="font-weight:bold;vertical-align:top;">wsgi_input</td><td style="vertical-align:top;">:</td><td><div>&lt;socket._fileobject object at 0x0A3E9970&gt;</div></td></tr><tr><td style="font-weight:bold;vertical-align:top;">wsgi_multiprocess</td><td style="vertical-align:top;">:</td><td><div>False</div></td></tr><tr><td style="font-weight:bold;vertical-align:top;">wsgi_multithread</td><td style="vertical-align:top;">:</td><td><div>True</div></td></tr><tr><td style="font-weight:bold;vertical-align:top;">wsgi_run_once</td><td style="vertical-align:top;">:</td><td><div>False</div></td></tr><tr><td style="font-weight:bold;vertical-align:top;">wsgi_url_scheme</td><td style="vertical-align:top;">:</td><td><div>http</div></td></tr><tr><td style="font-weight:bold;vertical-align:top;">wsgi_version</td><td style="vertical-align:top;">:</td><td><div><table><tr><td><div>1</div></td></tr><tr><td><div>0</div></td></tr></table></div></td></tr></table></div></td></tr><tr><td style="font-weight:bold;vertical-align:top;">extension</td><td style="vertical-align:top;">:</td><td><div>html</div></td></tr><tr><td style="font-weight:bold;vertical-align:top;">folder</td><td style="vertical-align:top;">:</td><td><div>C:\\Users\\xsarah\\Desktop\\xborlandax\\University\\cs183\\web2py\\applications\\GameDayCalendar\\</div></td></tr><tr><td style="font-weight:bold;vertical-align:top;">function</td><td style="vertical-align:top;">:</td><td><div>get_games</div></td></tr><tr><td style="font-weight:bold;vertical-align:top;">global_settings</td><td style="vertical-align:top;">:</td><td><div><table><tr><td style="font-weight:bold;vertical-align:top;">app_folders</td><td style="vertical-align:top;">:</td><td><div>set([&#x27;C:\\\\Users\\\\xsarah\\\\Desktop\\\\xborlandax\\\\University\\\\cs183\\\\web2py\\\\applications\\\\Veryimportant\\\\&#x27;, &#x27;C:\\\\Users\\\\xsarah\\\\Desktop\\\\xborlandax\\\\University\\\\cs183\\\\web2py\\\\applications\\\\a2\\\\&#x27;, &#x27;C:\\\\Users\\\\xsarah\\\\Desktop\\\\xborlandax\\\\University\\\\cs183\\\\web2py\\\\applications\\\\welcome\\\\&#x27;, &#x27;C:\\\\Users\\\\xsarah\\\\Desktop\\\\xborlandax\\\\University\\\\cs183\\\\web2py\\\\applications\\\\GameDayCalendar\\\\&#x27;, &#x27;C:\\\\Users\\\\xsarah\\\\Desktop\\\\xborlandax\\\\University\\\\cs183\\\\web2py\\\\applications\\\\admin\\\\&#x27;, &#x27;C:\\\\Users\\\\xsarah\\\\Desktop\\\\xborlandax\\\\University\\\\cs183\\\\web2py\\\\applications\\\\4\\\\&#x27;, &#x27;C:\\\\Users\\\\xsarah\\\\Desktop\\\\xborlandax\\\\University\\\\cs183\\\\web2py\\\\applications\\\\a1\\\\&#x27;])</div></td></tr><tr><td style="font-weight:bold;vertical-align:top;">applications_parent</td><td style="vertical-align:top;">:</td><td><div>C:\\Users\\xsarah\\Desktop\\xborlandax\\University\\cs183\\web2py</div></td></tr><tr><td style="font-weight:bold;vertical-align:top;">cmd_args</td><td style="vertical-align:top;">:</td><td><div><table></table></div></td></tr><tr><td style="font-weight:bold;vertical-align:top;">cmd_options</td><td style="vertical-align:top;">:</td><td><div>&lt;Values at 0x381ffa8: {&#x27;verbose&#x27;: False, &#x27;ip&#x27;: &#x27;127.0.0.1&#x27;, &#x27;debuglevel&#x27;: 30, &#x27;with_scheduler&#x27;: False, &#x27;shutdown_timeout&#x27;: 5, &#x27;taskbar&#x27;: False, &#x27;with_coverage&#x27;: False, &#x27;pid_filename&#x27;: &#x27;httpserver.pid&#x27;, &#x27;maxthreads&#x27;: None, &#x27;softcron&#x27;: False, &#x27;server_name&#x27;: &#x27;SAB&#x27;, &#x27;bpython&#x27;: False, &#x27;nogui&#x27;: False, &#x27;port&#x27;: 8000, &#x27;print_errors&#x27;: False, &#x27;extcron&#x27;: False, &#x27;runcron&#x27;: False, &#x27;run_system_tests&#x27;: False, &#x27;test&#x27;: None, &#x27;folder&#x27;: &#x27;C:\\\\Users\\\\xsarah\\\\Desktop\\\\xborlandax\\\\University\\\\cs183\\\\web2py&#x27;, &#x27;config&#x27;: &#x27;&#x27;, &#x27;minthreads&#x27;: None, &#x27;shell&#x27;: None, &#x27;run&#x27;: &#x27;&#x27;, &#x27;log_filename&#x27;: &#x27;httpserver.log&#x27;, &#x27;profiler_dir&#x27;: None, &#x27;args&#x27;: [&#x27;&#x27;], &#x27;socket_timeout&#x27;: 5, &#x27;ssl_ca_certificate&#x27;: None, &#x27;scheduler&#x27;: None, &#x27;interfaces&#x27;: None, &#x27;ssl_private_key&#x27;: &#x27;&#x27;, &#x27;gae&#x27;: None, &#x27;password&#x27;: &#x27;******&#x27;, &#x27;request_queue_size&#x27;: 5, &#x27;ssl_certificate&#x27;: &#x27;&#x27;, &#x27;cronjob&#x27;: False, &#x27;numthreads&#x27;: None, &#x27;quiet&#x27;: False, &#x27;import_models&#x27;: False, &#x27;timeout&#x27;: 10, &#x27;plain&#x27;: False, &#x27;nobanner&#x27;: False}&gt;</div></td></tr><tr><td style="font-weight:bold;vertical-align:top;">db_sessions</td><td style="vertical-align:top;">:</td><td><div>set([&#x27;a1&#x27;, &#x27;Veryimportant&#x27;, &#x27;4&#x27;, &#x27;a2&#x27;, &#x27;GameDayCalendar&#x27;])</div></td></tr><tr><td style="font-weight:bold;vertical-align:top;">debugging</td><td style="vertical-align:top;">:</td><td><div>True</div></td></tr><tr><td style="font-weight:bold;vertical-align:top;">gluon_parent</td><td style="vertical-align:top;">:</td><td><div>C:\\Users\\xsarah\\Desktop\\xborlandax\\University\\cs183\\web2py</div></td></tr><tr><td style="font-weight:bold;vertical-align:top;">is_jython</td><td style="vertical-align:top;">:</td><td><div>False</div></td></tr><tr><td style="font-weight:bold;vertical-align:top;">is_pypy</td><td style="vertical-align:top;">:</td><td><div>False</div></td></tr><tr><td style="font-weight:bold;vertical-align:top;">is_source</td><td style="vertical-align:top;">:</td><td><div>True</div></td></tr><tr><td style="font-weight:bold;vertical-align:top;">local_hosts</td><td style="vertical-align:top;">:</td><td><div><table><tr><td><div>192.168.1.27</div></td></tr><tr><td><div>SAB</div></td></tr><tr><td><div>::ffff:127.0.0.1</div></td></tr><tr><td><div>::1</div></td></tr><tr><td><div>fe80::f907:4247:a6c1:59ac%8</div></td></tr><tr><td><div>2001:0:9d38:90d7:2063:3ff8:9d07:30a7</div></td></tr><tr><td><div>192.168.56.1</div></td></tr><tr><td><div>fe80::bceb:fcc3:2a79:f927%3</div></td></tr><tr><td><div>127.0.0.1</div></td></tr><tr><td><div>fe80::2063:3ff8:9d07:30a7%5</div></td></tr></table></div></td></tr><tr><td style="font-weight:bold;vertical-align:top;">web2py_version</td><td style="vertical-align:top;">:</td><td><div>2.14.6-stable+timestamp.2016.05.10.00.21.47</div></td></tr></table></div></td></tr><tr><td style="font-weight:bold;vertical-align:top;">is_https</td><td style="vertical-align:top;">:</td><td><div>False</div></td></tr><tr><td style="font-weight:bold;vertical-align:top;">is_local</td><td style="vertical-align:top;">:</td><td><div>True</div></td></tr><tr><td style="font-weight:bold;vertical-align:top;">is_restful</td><td style="vertical-align:top;">:</td><td><div>False</div></td></tr><tr><td style="font-weight:bold;vertical-align:top;">is_scheduler</td><td style="vertical-align:top;">:</td><td><div>False</div></td></tr><tr><td style="font-weight:bold;vertical-align:top;">is_shell</td><td style="vertical-align:top;">:</td><td><div>False</div></td></tr><tr><td style="font-weight:bold;vertical-align:top;">now</td><td style="vertical-align:top;">:</td><td><div>datetime.datetime(2016, 11, 28, 18, 36, 48, 32000)</div></td></tr><tr><td style="font-weight:bold;vertical-align:top;">raw_args</td><td style="vertical-align:top;">:</td><td><div></div></td></tr><tr><td style="font-weight:bold;vertical-align:top;">raw_extension</td><td style="vertical-align:top;">:</td><td><div>None</div></td></tr><tr><td style="font-weight:bold;vertical-align:top;">url</td><td style="vertical-align:top;">:</td><td><div>/GameDayCalendar/gamedata/get_games</div></td></tr><tr><td style="font-weight:bold;vertical-align:top;">utcnow</td><td style="vertical-align:top;">:</td><td><div>datetime.datetime(2016, 11, 29, 2, 36, 48, 32000)</div></td></tr><tr><td style="font-weight:bold;vertical-align:top;">wsgi</td><td style="vertical-align:top;">:</td><td><div>&lt;gluon.main.LazyWSGI object at 0x0AB9AD30&gt;</div></td></tr></table></div>'
tRp58
sS'frames'
p59
(lp60
(dp61
S'file'
p62
S'C:\\Users\\xsarah\\Desktop\\xborlandax\\University\\cs183\\web2py\\gluon\\restricted.py'
p63
sS'dump'
p64
(dp65
S'environment'
p66
S"{'A': <class 'gluon.html.A'>, 'ANY_OF': <class 'gluon.validators.ANY_OF'>, 'ASSIGNJS': <function ASSIGNJS>, 'AppConfig': <function AppConfig>, 'Auth': <class 'gluon.tools.Auth'>, 'B': <class 'gluon.html.B'>, 'BEAUTIFY': <class 'gluon.html.BEAUTIFY'>, 'BODY': <class 'gluon.html.BODY'>, 'BR': <class 'gluon.html.BR'>, 'BUTTON': <class 'gluon.html.BUTTON'>, ...}"
p67
sS'ccode'
p68
S'<code object <module> at 0A5A7578, file "C:\\User...GameDayCalendar\\controllers/gamedata.py", line 4>'
p69
ssS'lnum'
p70
I227
sS'lines'
p71
(dp72
I224
S'            ccode = code'
p73
sI225
S'        else:'
p74
sI226
S'            ccode = compile2(code, layer)'
p75
sI227
S'        exec ccode in environment'
p76
sI228
S'    except HTTP:'
p77
sI229
S'        raise'
p78
sI230
S'    except RestrictedError:'
p79
sI231
S'        # do not encapsulate (obfuscate) the original RestrictedError'
p80
sI222
S'    try:'
p81
sI223
S'        if isinstance(code, types.CodeType):'
p82
ssS'call'
p83
S"(code='# pulls data about games and puts them into the ...\\n\\n\\n\\n\\n\\nresponse._vars=response._caller(get_games)\\n', environment={'A': <class 'gluon.html.A'>, 'ANY_OF': <class 'gluon.validators.ANY_OF'>, 'ASSIGNJS': <function ASSIGNJS>, 'AppConfig': <function AppConfig>, 'Auth': <class 'gluon.tools.Auth'>, 'B': <class 'gluon.html.B'>, 'BEAUTIFY': <class 'gluon.html.BEAUTIFY'>, 'BODY': <class 'gluon.html.BODY'>, 'BR': <class 'gluon.html.BR'>, 'BUTTON': <class 'gluon.html.BUTTON'>, ...}, layer=r'C:\\Users\\xsarah\\Desktop\\xborlandax\\University\\cs...lications\\GameDayCalendar\\controllers/gamedata.py')"
p84
sS'func'
p85
S'restricted'
p86
sa(dp87
g62
S'C:\\Users\\xsarah\\Desktop\\xborlandax\\University\\cs183\\web2py\\applications\\GameDayCalendar\\controllers\\gamedata.py'
p88
sg64
(dp89
sg70
I562
sg71
(dp90
I551
S''
sI552
S'    return "ok"'
p91
sI553
S'#testing'
p92
sI554
S'#get_games(11,2016)'
p93
sI555
S"#get_game_data('359')"
p94
sI556
S''
sI557
S''
sI558
S''
sI559
S''
sI560
S''
ssg83
S'()'
p95
sg85
S'<module>'
p96
sa(dp97
g62
S'C:\\Users\\xsarah\\Desktop\\xborlandax\\University\\cs183\\web2py\\gluon\\globals.py'
p98
sg64
(dp99
S'self'
p100
S'undefined'
p101
sS'f'
S'<gluon.cache.CacheAction object>'
p102
ssg70
I417
sg71
(dp103
I416
S'        self._vars = None'
p104
sI417
S'        self._caller = lambda f: f()'
p105
sI418
S'        self._view_environment = None'
p106
sI419
S'        self._custom_commit = None'
p107
sI420
S'        self._custom_rollback = None'
p108
sI421
S"        self.generic_patterns = ['*']"
p109
sI412
S"        self.flash = ''            # used by the default view layout"
p110
sI413
S'        self.meta = Storage()      # used by web2py_ajax.html'
p111
sI414
S'        self.menu = []             # used by the default view layout'
p112
sI415
S'        self.files = []            # used by web2py_ajax.html'
p113
ssg83
S'(f=<gluon.cache.CacheAction object>)'
p114
sg85
S'<lambda>'
p115
sa(dp116
g62
S'C:\\Users\\xsarah\\Desktop\\xborlandax\\University\\cs183\\web2py\\gluon\\cache.py'
p117
sg64
(dp118
S'self'
p119
S'<gluon.cache.CacheAction object>'
p120
sS'self.time_expire'
p121
S'15'
p122
ssg70
I526
sg71
(dp123
I521
S'        cache_model = self.cache_model'
p124
sI522
S'        if not cache_model or isinstance(cache_model, str):'
p125
sI523
S"            cache_model = getattr(self.cache, cache_model or 'ram')"
p126
sI524
S'        return cache_model(key2,'
p127
sI525
S'                           lambda a=a, b=b: self.func(*a, **b),'
p128
sI526
S'                           self.time_expire)'
p129
sI527
S''
sI528
S''
sI529
S'class Cache(object):'
p130
sI530
S'    """'
p131
ssg83
S'(self=<gluon.cache.CacheAction object>, *a=(), **b={})'
p132
sg85
S'__call__'
p133
sa(dp134
g62
S'C:\\Users\\xsarah\\Desktop\\xborlandax\\University\\cs183\\web2py\\gluon\\cache.py'
p135
sg64
(dp136
S'value'
p137
g101
sS'f'
S'<function <lambda>>'
p138
ssg70
I468
sg71
(dp139
I463
S''
sI464
S'        if item and ((dt is None) or (item[0] > now - dt)):'
p140
sI465
S'            value = item[1]'
p141
sI466
S'        else:'
p142
sI467
S'            try:'
p143
sI468
S'                value = f()'
p144
sI469
S'            except:'
p145
sI470
S'                self.storage.release(CacheAbstract.cache_stats_name)'
p146
sI471
S'                self.storage.release(key)'
p147
sI472
S'                raise'
p148
ssg83
S"(self=<gluon.cache.CacheOnDisk object>, key='/GameDayCalendar/gamedata/get_games', f=<function <lambda>>, time_expire=15)"
p149
sg85
g133
sa(dp150
g62
S'C:\\Users\\xsarah\\Desktop\\xborlandax\\University\\cs183\\web2py\\gluon\\cache.py'
p151
sg64
(dp152
S'a'
S'()'
p153
sS'self'
p154
S'<gluon.cache.CacheAction object>'
p155
sS'b'
g45
sS'self.func'
p156
S'<function get_games>'
p157
ssg70
I525
sg71
(dp158
I520
S"                .replace('%(args)s', str(a)).replace('%(vars)s', str(b))"
p159
sI521
S'        cache_model = self.cache_model'
p160
sI522
S'        if not cache_model or isinstance(cache_model, str):'
p161
sI523
S"            cache_model = getattr(self.cache, cache_model or 'ram')"
p162
sI524
S'        return cache_model(key2,'
p163
sI525
S'                           lambda a=a, b=b: self.func(*a, **b),'
p164
sI526
S'                           self.time_expire)'
p165
sI527
S''
sI528
S''
sI529
S'class Cache(object):'
p166
ssg83
S'(a=(), b={})'
p167
sg85
g115
sa(dp168
g62
S'C:\\Users\\xsarah\\Desktop\\xborlandax\\University\\cs183\\web2py\\applications\\GameDayCalendar\\controllers\\gamedata.py'
p169
sg64
(dp170
S'game'
p171
S'{\'coverReg\': \'https://www.naplesgarden.org/wp-content/themes/naples_botanical/img/notfound.jpg\', \'coverThumb\': \'https://www.naplesgarden.org/wp-content/themes/naples_botanical/img/notfound.jpg\', \'game_in_list\': \'plus\', \'id\': 23164, \'name\': "Curiosity \\xe2\\x80\\x93 What\'s Inside the Cube?", \'release\': []}'
p172
sS'gameRelease'
p173
S"{'date': '05-11-2016.000000', 'platform': 'iOS', 'region': 'World Wide'}"
p174
ssg70
I148
sg71
(dp175
I143
S"                            platform = PLATFORMS[str(releaseData['platform'])],"
p176
sI144
S'                            region = "World Wide"'
p177
sI145
S'                        )'
p178
sI146
S"                        if 'region' in releaseData:"
p179
sI147
S"                            gameRelease['region']= REGIONS[str(releaseData['region'])]"
p180
sI148
S"                        game['release'][0]=gameRelease"
p181
sI149
S'                        game_list.append(game)'
p182
sI150
S"        game_list = sorted(game_list, key = lambda k: k['release'][0]['date'])"
p183
sI151
S'    else:'
p184
sI152
S'        StatusRequest = "ERROR"'
p185
ssg83
S'()'
p186
sg85
S'get_games'
p187
sasS'pyver'
p188
S'Python 2.7.12: C:\\Python27\\python.exe (prefix: C:\\Python27)'
p189
sS'session'
p190
g57
(S's\xf1\x08\x00\x00<div><table><tr><td style="font-weight:bold;vertical-align:top;">auth</td><td style="vertical-align:top;">:</td><td><div><table><tr><td style="font-weight:bold;vertical-align:top;">expiration</td><td style="vertical-align:top;">:</td><td><div>3600</div></td></tr><tr><td style="font-weight:bold;vertical-align:top;">hmac_key</td><td style="vertical-align:top;">:</td><td><div>3b264928-ec0f-4d93-ac88-43bcb59ad93e</div></td></tr><tr><td style="font-weight:bold;vertical-align:top;">last_visit</td><td style="vertical-align:top;">:</td><td><div>datetime.datetime(2016, 11, 28, 18, 36, 11, 85000)</div></td></tr><tr><td style="font-weight:bold;vertical-align:top;">remember_me</td><td style="vertical-align:top;">:</td><td><div>False</div></td></tr><tr><td style="font-weight:bold;vertical-align:top;">user</td><td style="vertical-align:top;">:</td><td><div><table><tr><td style="font-weight:bold;vertical-align:top;">email</td><td style="vertical-align:top;">:</td><td><div>testemail@email.com</div></td></tr><tr><td style="font-weight:bold;vertical-align:top;">first_name</td><td style="vertical-align:top;">:</td><td><div>TestFirst</div></td></tr><tr><td style="font-weight:bold;vertical-align:top;">id</td><td style="vertical-align:top;">:</td><td><div>1L</div></td></tr><tr><td style="font-weight:bold;vertical-align:top;">last_name</td><td style="vertical-align:top;">:</td><td><div>TestLast</div></td></tr><tr><td style="font-weight:bold;vertical-align:top;">registration_id</td><td style="vertical-align:top;">:</td><td><div></div></td></tr><tr><td style="font-weight:bold;vertical-align:top;">registration_key</td><td style="vertical-align:top;">:</td><td><div></div></td></tr><tr><td style="font-weight:bold;vertical-align:top;">reset_password_key</td><td style="vertical-align:top;">:</td><td><div></div></td></tr></table></div></td></tr><tr><td style="font-weight:bold;vertical-align:top;">user_groups</td><td style="vertical-align:top;">:</td><td><div><table><tr><td style="font-weight:bold;vertical-align:top;">1</td><td style="vertical-align:top;">:</td><td><div>user_1</div></td></tr></table></div></td></tr></table></div></td></tr><tr><td style="font-weight:bold;vertical-align:top;">flash</td><td style="vertical-align:top;">:</td><td><div>None</div></td></tr></table></div>'
tRp191
sS'etype'
p192
S"<type 'exceptions.IndexError'>"
p193
sS'date'
p194
S'Mon Nov 28 18:36:50 2016'
p195
sS'response'
p196
g57
(S's\x925\x00\x00<div><table><tr><td style="font-weight:bold;vertical-align:top;">body</td><td style="vertical-align:top;">:</td><td><div>&lt;cStringIO.StringO object at 0x0AB9A8C0&gt;</div></td></tr><tr><td style="font-weight:bold;vertical-align:top;">cookies</td><td style="vertical-align:top;">:</td><td><div><table><tr><td style="font-weight:bold;vertical-align:top;">session_id_gamedaycalendar</td><td style="vertical-align:top;">:</td><td><div>23:b38952d1-a3da-41e5-a3da-0e6c9d257552<table><tr><td style="font-weight:bold;vertical-align:top;">comment</td><td style="vertical-align:top;">:</td><td><div></div></td></tr><tr><td style="font-weight:bold;vertical-align:top;">domain</td><td style="vertical-align:top;">:</td><td><div></div></td></tr><tr><td style="font-weight:bold;vertical-align:top;">expires</td><td style="vertical-align:top;">:</td><td><div></div></td></tr><tr><td style="font-weight:bold;vertical-align:top;">httponly</td><td style="vertical-align:top;">:</td><td><div></div></td></tr><tr><td style="font-weight:bold;vertical-align:top;">max-age</td><td style="vertical-align:top;">:</td><td><div></div></td></tr><tr><td style="font-weight:bold;vertical-align:top;">path</td><td style="vertical-align:top;">:</td><td><div>/</div></td></tr><tr><td style="font-weight:bold;vertical-align:top;">secure</td><td style="vertical-align:top;">:</td><td><div></div></td></tr><tr><td style="font-weight:bold;vertical-align:top;">version</td><td style="vertical-align:top;">:</td><td><div></div></td></tr></table></div></td></tr></table></div></td></tr><tr><td style="font-weight:bold;vertical-align:top;">delimiters</td><td style="vertical-align:top;">:</td><td><div><table><tr><td><div>{{</div></td></tr><tr><td><div>}}</div></td></tr></table></div></td></tr><tr><td style="font-weight:bold;vertical-align:top;">files</td><td style="vertical-align:top;">:</td><td><div><table></table></div></td></tr><tr><td style="font-weight:bold;vertical-align:top;">flash</td><td style="vertical-align:top;">:</td><td><div></div></td></tr><tr><td style="font-weight:bold;vertical-align:top;">form_label_separator</td><td style="vertical-align:top;">:</td><td><div></div></td></tr><tr><td style="font-weight:bold;vertical-align:top;">formstyle</td><td style="vertical-align:top;">:</td><td><div>bootstrap3_inline</div></td></tr><tr><td style="font-weight:bold;vertical-align:top;">generic_patterns</td><td style="vertical-align:top;">:</td><td><div><table><tr><td><div>*</div></td></tr></table></div></td></tr><tr><td style="font-weight:bold;vertical-align:top;">google_analytics_id</td><td style="vertical-align:top;">:</td><td><div>None</div></td></tr><tr><td style="font-weight:bold;vertical-align:top;">headers</td><td style="vertical-align:top;">:</td><td><div><table><tr><td style="font-weight:bold;vertical-align:top;">X-Powered-By</td><td style="vertical-align:top;">:</td><td><div>web2py</div></td></tr></table></div></td></tr><tr><td style="font-weight:bold;vertical-align:top;">logo</td><td style="vertical-align:top;">:</td><td><div><a class="navbar-brand" href="http://www.web2py.com/" id="web2py-logo"><b>web<span>2</span>py</b>&trade;&nbsp;</a></div></td></tr><tr><td style="font-weight:bold;vertical-align:top;">menu</td><td style="vertical-align:top;">:</td><td><div><table><tr><td><div><table><tr><td><div>Home</div></td></tr><tr><td><div>False</div></td></tr><tr><td><div>/GameDayCalendar/default/index</div></td></tr><tr><td><div><table></table></div></td></tr></table></div></td></tr><tr><td><div><table><tr><td><div>My Sites</div></td></tr><tr><td><div>False</div></td></tr><tr><td><div>/admin/default/site</div></td></tr></table></div></td></tr><tr><td><div><table><tr><td><div>This App</div></td></tr><tr><td><div>False</div></td></tr><tr><td><div>#</div></td></tr><tr><td><div><table><tr><td><div><table><tr><td><div>Design</div></td></tr><tr><td><div>False</div></td></tr><tr><td><div>/admin/default/design/GameDayCalendar</div></td></tr></table></div></td></tr><tr><td><div><li class="divider"></li></div></td></tr><tr><td><div><table><tr><td><div>Controller</div></td></tr><tr><td><div>False</div></td></tr><tr><td><div>/admin/default/edit/GameDayCalendar/controllers/gamedata.py</div></td></tr></table></div></td></tr><tr><td><div><table><tr><td><div>View</div></td></tr><tr><td><div>False</div></td></tr><tr><td><div>/admin/default/edit/GameDayCalendar/views/gamedata/get_games.html</div></td></tr></table></div></td></tr><tr><td><div><table><tr><td><div>DB Model</div></td></tr><tr><td><div>False</div></td></tr><tr><td><div>/admin/default/edit/GameDayCalendar/models/db.py</div></td></tr></table></div></td></tr><tr><td><div><table><tr><td><div>Menu Model</div></td></tr><tr><td><div>False</div></td></tr><tr><td><div>/admin/default/edit/GameDayCalendar/models/menu.py</div></td></tr></table></div></td></tr><tr><td><div><table><tr><td><div>Config.ini</div></td></tr><tr><td><div>False</div></td></tr><tr><td><div>/admin/default/edit/GameDayCalendar/private/appconfig.ini</div></td></tr></table></div></td></tr><tr><td><div><table><tr><td><div>Layout</div></td></tr><tr><td><div>False</div></td></tr><tr><td><div>/admin/default/edit/GameDayCalendar/views/layout.html</div></td></tr></table></div></td></tr><tr><td><div><table><tr><td><div>Stylesheet</div></td></tr><tr><td><div>False</div></td></tr><tr><td><div>/admin/default/edit/GameDayCalendar/static/css/web2py-bootstrap3.css</div></td></tr></table></div></td></tr><tr><td><div><table><tr><td><div>Database</div></td></tr><tr><td><div>False</div></td></tr><tr><td><div>/GameDayCalendar/appadmin/index</div></td></tr></table></div></td></tr><tr><td><div><table><tr><td><div>Errors</div></td></tr><tr><td><div>False</div></td></tr><tr><td><div>/admin/default/errors/GameDayCalendar</div></td></tr></table></div></td></tr><tr><td><div><table><tr><td><div>About</div></td></tr><tr><td><div>False</div></td></tr><tr><td><div>/admin/default/about/GameDayCalendar</div></td></tr></table></div></td></tr></table></div></td></tr></table></div></td></tr><tr><td><div><table><tr><td><div>Documentation</div></td></tr><tr><td><div>False</div></td></tr><tr><td><div>#</div></td></tr><tr><td><div><table><tr><td><div><table><tr><td><div>Online book</div></td></tr><tr><td><div>False</div></td></tr><tr><td><div>http://www.web2py.com/book</div></td></tr></table></div></td></tr><tr><td><div><li class="divider"></li></div></td></tr><tr><td><div><table><tr><td><div>Preface</div></td></tr><tr><td><div>False</div></td></tr><tr><td><div>http://www.web2py.com/book/default/chapter/00</div></td></tr></table></div></td></tr><tr><td><div><table><tr><td><div>Introduction</div></td></tr><tr><td><div>False</div></td></tr><tr><td><div>http://www.web2py.com/book/default/chapter/01</div></td></tr></table></div></td></tr><tr><td><div><table><tr><td><div>Python</div></td></tr><tr><td><div>False</div></td></tr><tr><td><div>http://www.web2py.com/book/default/chapter/02</div></td></tr></table></div></td></tr><tr><td><div><table><tr><td><div>Overview</div></td></tr><tr><td><div>False</div></td></tr><tr><td><div>http://www.web2py.com/book/default/chapter/03</div></td></tr></table></div></td></tr><tr><td><div><table><tr><td><div>The Core</div></td></tr><tr><td><div>False</div></td></tr><tr><td><div>http://www.web2py.com/book/default/chapter/04</div></td></tr></table></div></td></tr><tr><td><div><table><tr><td><div>The Views</div></td></tr><tr><td><div>False</div></td></tr><tr><td><div>http://www.web2py.com/book/default/chapter/05</div></td></tr></table></div></td></tr><tr><td><div><table><tr><td><div>Database</div></td></tr><tr><td><div>False</div></td></tr><tr><td><div>http://www.web2py.com/book/default/chapter/06</div></td></tr></table></div></td></tr><tr><td><div><table><tr><td><div>Forms and Validators</div></td></tr><tr><td><div>False</div></td></tr><tr><td><div>http://www.web2py.com/book/default/chapter/07</div></td></tr></table></div></td></tr><tr><td><div><table><tr><td><div>Email and SMS</div></td></tr><tr><td><div>False</div></td></tr><tr><td><div>http://www.web2py.com/book/default/chapter/08</div></td></tr></table></div></td></tr><tr><td><div><table><tr><td><div>Access Control</div></td></tr><tr><td><div>False</div></td></tr><tr><td><div>http://www.web2py.com/book/default/chapter/09</div></td></tr></table></div></td></tr><tr><td><div><table><tr><td><div>Services</div></td></tr><tr><td><div>False</div></td></tr><tr><td><div>http://www.web2py.com/book/default/chapter/10</div></td></tr></table></div></td></tr><tr><td><div><table><tr><td><div>Ajax Recipes</div></td></tr><tr><td><div>False</div></td></tr><tr><td><div>http://www.web2py.com/book/default/chapter/11</div></td></tr></table></div></td></tr><tr><td><div><table><tr><td><div>Components and Plugins</div></td></tr><tr><td><div>False</div></td></tr><tr><td><div>http://www.web2py.com/book/default/chapter/12</div></td></tr></table></div></td></tr><tr><td><div><table><tr><td><div>Deployment Recipes</div></td></tr><tr><td><div>False</div></td></tr><tr><td><div>http://www.web2py.com/book/default/chapter/13</div></td></tr></table></div></td></tr><tr><td><div><table><tr><td><div>Other Recipes</div></td></tr><tr><td><div>False</div></td></tr><tr><td><div>http://www.web2py.com/book/default/chapter/14</div></td></tr></table></div></td></tr><tr><td><div><table><tr><td><div>Helping web2py</div></td></tr><tr><td><div>False</div></td></tr><tr><td><div>http://www.web2py.com/book/default/chapter/15</div></td></tr></table></div></td></tr><tr><td><div><table><tr><td><div>Buy web2py\'s book</div></td></tr><tr><td><div>False</div></td></tr><tr><td><div>http://stores.lulu.com/web2py</div></td></tr></table></div></td></tr></table></div></td></tr></table></div></td></tr></table></div></td></tr><tr><td style="font-weight:bold;vertical-align:top;">meta</td><td style="vertical-align:top;">:</td><td><div><table><tr><td style="font-weight:bold;vertical-align:top;">author</td><td style="vertical-align:top;">:</td><td><div>Your Name &lt;you@example.com&gt;</div></td></tr><tr><td style="font-weight:bold;vertical-align:top;">description</td><td style="vertical-align:top;">:</td><td><div>a cool new app</div></td></tr><tr><td style="font-weight:bold;vertical-align:top;">generator</td><td style="vertical-align:top;">:</td><td><div>Web2py Web Framework</div></td></tr><tr><td style="font-weight:bold;vertical-align:top;">keywords</td><td style="vertical-align:top;">:</td><td><div><table><tr><td><div>web2py</div></td></tr><tr><td><div>python</div></td></tr><tr><td><div>framework</div></td></tr></table></div></td></tr></table></div></td></tr><tr><td style="font-weight:bold;vertical-align:top;">models_to_run</td><td style="vertical-align:top;">:</td><td><div><table><tr><td><div>^\\w+\\.py$</div></td></tr><tr><td><div>^gamedata/\\w+\\.py$</div></td></tr><tr><td><div>^gamedata/get_games/\\w+\\.py$</div></td></tr></table></div></td></tr><tr><td style="font-weight:bold;vertical-align:top;">postprocessing</td><td style="vertical-align:top;">:</td><td><div><table></table></div></td></tr><tr><td style="font-weight:bold;vertical-align:top;">session_client</td><td style="vertical-align:top;">:</td><td><div>127.0.0.1</div></td></tr><tr><td style="font-weight:bold;vertical-align:top;">session_cookie_compression_level</td><td style="vertical-align:top;">:</td><td><div>None</div></td></tr><tr><td style="font-weight:bold;vertical-align:top;">session_cookie_expires</td><td style="vertical-align:top;">:</td><td><div>None</div></td></tr><tr><td style="font-weight:bold;vertical-align:top;">session_data_name</td><td style="vertical-align:top;">:</td><td><div>session_data_gamedaycalendar</div></td></tr><tr><td style="font-weight:bold;vertical-align:top;">session_db_record_id</td><td style="vertical-align:top;">:</td><td><div>23L</div></td></tr><tr><td style="font-weight:bold;vertical-align:top;">session_db_table</td><td style="vertical-align:top;">:</td><td><div>&lt;Table web2py_session_GameDayCalendar (id, locked, client_ip, created_datetime, modified_datetime, unique_key, session_data)&gt;</div></td></tr><tr><td style="font-weight:bold;vertical-align:top;">session_db_unique_key</td><td style="vertical-align:top;">:</td><td><div>b38952d1-a3da-41e5-a3da-0e6c9d257552</div></td></tr><tr><td style="font-weight:bold;vertical-align:top;">session_hash</td><td style="vertical-align:top;">:</td><td><div>e139afbd50b98941ce08ba63b0d5c5cb</div></td></tr><tr><td style="font-weight:bold;vertical-align:top;">session_id</td><td style="vertical-align:top;">:</td><td><div>23:b38952d1-a3da-41e5-a3da-0e6c9d257552</div></td></tr><tr><td style="font-weight:bold;vertical-align:top;">session_id_name</td><td style="vertical-align:top;">:</td><td><div>session_id_gamedaycalendar</div></td></tr><tr><td style="font-weight:bold;vertical-align:top;">session_masterapp</td><td style="vertical-align:top;">:</td><td><div>GameDayCalendar</div></td></tr><tr><td style="font-weight:bold;vertical-align:top;">session_new</td><td style="vertical-align:top;">:</td><td><div>False</div></td></tr><tr><td style="font-weight:bold;vertical-align:top;">session_storage_type</td><td style="vertical-align:top;">:</td><td><div>db</div></td></tr><tr><td style="font-weight:bold;vertical-align:top;">status</td><td style="vertical-align:top;">:</td><td><div>200</div></td></tr><tr><td style="font-weight:bold;vertical-align:top;">subtitle</td><td style="vertical-align:top;">:</td><td><div></div></td></tr><tr><td style="font-weight:bold;vertical-align:top;">title</td><td style="vertical-align:top;">:</td><td><div>Gamedaycalendar</div></td></tr><tr><td style="font-weight:bold;vertical-align:top;">view</td><td style="vertical-align:top;">:</td><td><div>gamedata/get_games.html</div></td></tr></table></div>'
tRp197
sS'locals'
p198
(dp199
S'nextYear'
p200
S"'2016'"
p201
sS'game_list'
p202
S'[]'
p203
sS'month'
p204
S"'11'"
p205
sS'releaseData'
p206
S"{u'category': 0, u'date': 1478390400000L, u'human': u'2016-Nov-06', u'm': 11, u'platform': 39, u'y': 2016}"
p207
sS'year'
p208
S"'2016'"
p209
sS'user_games_dict'
p210
S'\'{"7627": {"name": "RollerCoaster Tycoon World", .../image/upload/t_thumb/exzxitwgvhwzric1byej.jpg"}}\''
p211
sS'pattern'
p212
S"'%Y-%m-%d'"
p213
sS'nextMonth'
p214
S"'12'"
p215
sS'epochFinish'
p216
S'1480579200'
p217
sS'gameData'
p218
S'{u\'id\': 23164, u\'name\': u"Curiosity \\u2013 What\'s Inside the Cube?", u\'release_dates\': [{u\'category\': 0, u\'date\': 1478390400000L, u\'human\': u\'2016-Nov-06\', u\'m\': 11, u\'platform\': 39, u\'y\': 2016}, {u\'category\': 0, u\'date\': 1478390400000L, u\'human\': u\'2016-Nov-06\', u\'m\': 11, u\'platform\': 34, u\'y\': 2016}]}'
p219
sS'realDate'
p220
S"'05-11-2016.000000'"
p221
sS'resWeekB'
p222
S'<Response [200]>'
p223
sS'logged_in'
p224
S'True'
p225
sS'week'
p226
S'<Response [200]>'
p227
sS'user_games_pull'
p228
S'<Row {\'games_list_json\': \'{"7627": {"name": "Rol...}\', \'user_id\': \'testemail@email.com\', \'id\': 13L}>'
p229
sS'gameMonth'
p230
S'[<Response [200]>, <Response [200]>, <Response [200]>]'
p231
sS'timeFinish'
p232
S"'2016-12-01'"
p233
sS'resWeekC'
p234
S'<Response [200]>'
p235
sS'resWeekA'
p236
S'<Response [200]>'
p237
sS'game_in_user_list'
p238
S"'plus'"
p239
sS'game'
p240
S'{\'coverReg\': \'https://www.naplesgarden.org/wp-content/themes/naples_botanical/img/notfound.jpg\', \'coverThumb\': \'https://www.naplesgarden.org/wp-content/themes/naples_botanical/img/notfound.jpg\', \'game_in_list\': \'plus\', \'id\': 23164, \'name\': "Curiosity \\xe2\\x80\\x93 What\'s Inside the Cube?", \'release\': []}'
p241
sS'curuser_email'
p242
S"'testemail@email.com'"
p243
sS'weekResponse'
p244
S'[{u\'id\': 23164, u\'name\': u"Curiosity \\u2013 What\'s Inside the Cube?", u\'release_dates\': [{u\'category\': 0, u\'date\': 1478390400000L, u\'human\': u\'2016-Nov-06\', u\'m\': 11, u\'platform\': 39, u\'y\': 2016}, {u\'category\': 0, u\'date\': 1478390400000L, u\'human\': u\'2016-Nov-06\', u\'m\': 11, u\'platform\': 34, u\'y\': 2016}]}, {u\'id\': 26008, u\'name\': u\'SENRAN KAGURA Bon App\\xe9tit! - Full Course\', u\'release_dates\': [{u\'category\': 0, u\'date\': 1478736000000L, u\'human\': u\'2016-Nov-10\', u\'m\': 11, u\'platform\': 6, u\'region\': 8, u\'y\': 2016}]}, {u\'cover\': {u\'cloudinary_id\': u\'jsfsom4b2bsipltdv4hf\', u\'height\': 1440, u\'url\': u\'//images.igdb.com/igdb/image/upload/t_thumb/jsfsom4b2bsipltdv4hf.png\', u\'width\': 1008}, u\'id\': 25980, u\'name\': u\'Zen Garden\', u\'release_dates\': [{u\'category\': 0, u\'date\': 1478044800000L, u\'human\': u\'2016-Nov-02\', u\'m\': 11, u\'platform\': 55, u\'region\': 8, u\'y\': 2016}]}, {u\'cover\': {u\'cloudinary_id\': u\'hbqas0uveynmyddwlozr\', u\'height\': 801, u\'url\': u\'//images.igdb.com/igdb/image/upload/t_thumb/hbqas0uveynmyddwlozr.png\', u\'width\': 640}, u\'id\': 25921, u\'name\': u\'Atelier Firis: The Alchemist and the Mysterious Journey\', u\'release_dates\': [{u\'category\': 4, u\'date\': 1498780800000L, u\'human\': u\'2017-Q2\', u\'m\': 6, u\'platform\': 46, u\'region\': 1, u\'y\': 2017}, {u\'category\': 4, u\'date\': 1498780800000L, u\'human\': u\'2017-Q2\', u\'m\': 6, u\'platform\': 48, u\'region\': 1, u\'y\': 2017}, {u\'category\': 4, u\'date\': 1498780800000L, u\'human\': u\'2017-Q2\', u\'m\': 6, u\'platform\': 6, u\'region\': 8, u\'y\': 2017}, {u\'category\': 4, u\'date\': 1498780800000L, u\'human\': u\'2017-Q2\', u\'m\': 6, u\'platform\': 46, u\'region\': 2, u\'y\': 2017}, {u\'category\': 4, u\'date\': 1498780800000L, u\'human\': u\'2017-Q2\', u\'m\': 6, u\'platform\': 48, u\'region\': 2, u\'y\': 2017}, {u\'category\': 0, u\'date\': 1478044800000L, u\'human\': u\'2016-Nov-02\', u\'m\': 11, u\'platform\': 46, u\'region\': 5, u\'y\': 2016}, {u\'category\': 0, u\'date\': 1478044800000L, u\'human\': u\'2016-Nov-02\', u\'m\': 11, u\'platform\': 48, u\'region\': 5, u\'y\': 2016}]}, {u\'cover\': {u\'cloudinary_id\': u\'wg13guebaa7hepsrhr9u\', u\'height\': 720, u\'url\': u\'//images.igdb.com/igdb/image/upload/t_thumb/wg13guebaa7hepsrhr9u.png\', u\'width\': 1280}, u\'id\': 25919, u\'name\': u\'Space Demolisher\', u\'release_dates\': [{u\'category\': 0, u\'date\': 1478649600000L, u\'human\': u\'2016-Nov-09\', u\'m\': 11, u\'platform\': 34, u\'region\': 8, u\'y\': 2016}]}, {u\'cover\': {u\'cloudinary_id\': u\'it58smbpvhqhbbubqsj5\', u\'height\': 768, u\'url\': u\'//images.igdb.com/igdb/image/upload/t_thumb/it58smbpvhqhbbubqsj5.png\', u\'width\': 1025}, u\'id\': 25910, u\'name\': u\'Mallow Drops\', u\'release_dates\': [{u\'category\': 0, u\'date\': 1478131200000L, u\'human\': u\'2016-Nov-03\', u\'m\': 11, u\'platform\': 14, u\'y\': 2016}, {u\'category\': 0, u\'date\': 1478131200000L, u\'human\': u\'2016-Nov-03\', u\'m\': 11, u\'platform\': 6, u\'y\': 2016}]}, {u\'id\': 25873, u\'name\': u\'Speedy Bally\', u\'release_dates\': [{u\'category\': 0, u\'date\': 1478304000000L, u\'human\': u\'2016-Nov-05\', u\'m\': 11, u\'platform\': 34, u\'region\': 8, u\'y\': 2016}]}, {u\'cover\': {u\'cloudinary_id\': u\'acchpgapr1hennj5xhsp\', u\'height\': 1080, u\'url\': u\'//images.igdb.com/igdb/image/upload/t_thumb/acchpgapr1hennj5xhsp.png\', u\'width\': 1920}, u\'id\': 25839, u\'name\': u\'Shoot The Bubbles Deluxe\', u\'release_dates\': [{u\'category\': 0, u\'date\': 1478563200000L, u\'human\': u\'2016-Nov-08\', u\'m\': 11, u\'platform\': 34, u\'region\': 8, u\'y\': 2016}]}, {u\'cover\': {u\'cloudinary_id\': u\'mvckohbekbvvu7qibx8z\', u\'height\': 1920, u\'url\': u\'//images.igdb.com/igdb/image/upload/t_thumb/mvckohbekbvvu7qibx8z.png\', u\'width\': 1200}, u\'id\': 25791, u\'name\': u\'Digimon Masters Online\', u\'release_dates\': [{u\'category\': 0, u\'date\': 1478131200000L, u\'human\': u\'2016-Nov-03\', u\'m\': 11, u\'platform\': 6, u\'region\': 8, u\'y\': 2016}]}, {u\'cover\': {u\'cloudinary_id\': u\'z2u5uw1iapdfsqhdobws\', u\'height\': 630, u\'url\': u\'//images.igdb.com/igdb/image/upload/t_thumb/z2u5uw1iapdfsqhdobws.png\', u\'width\': 1200}, u\'id\': 25788, u\'name\': u\'VOI\', u\'release_dates\': [{u\'category\': 0, u\'date\': 1478476800000L, u\'human\': u\'2016-Nov-07\', u\'m\': 11, u\'platform\': 14, u\'region\': 8, u\'y\': 2016}, {u\'category\': 0, u\'date\': 1478476800000L, u\'human\': u\'2016-Nov-07\', u\'m\': 11, u\'platform\': 6, u\'region\': 8, u\'y\': 2016}, {u\'category\': 1, u\'date\': 1464739200000L, u\'human\': u\'2016-Jun\', u\'m\': 6, u\'platform\': 39, u\'region\': 8, u\'y\': 2016}]}, {u\'id\': 25787, u\'name\': u\'Bye-Bye, Wacky Planet\', u\'release_dates\': [{u\'category\': 0, u\'date\': 1478217600000L, u\'human\': u\'2016-Nov-04\', u\'m\': 11, u\'platform\': 6, u\'region\': 8, u\'y\': 2016}]}, {u\'cover\': {u\'cloudinary_id\': u\'f1yqhjuwdkzqqrzxcf3u\', u\'height\': 215, u\'url\': u\'//images.igdb.com/igdb/image/upload/t_thumb/f1yqhjuwdkzqqrzxcf3u.png\', u\'width\': 460}, u\'id\': 25776, u\'name\': u\'One Night Stand\', u\'release_dates\': [{u\'category\': 0, u\'date\': 1478476800000L, u\'human\': u\'2016-Nov-07\', u\'m\': 11, u\'platform\': 3, u\'region\': 8, u\'y\': 2016}, {u\'category\': 0, u\'date\': 1476921600000L, u\'human\': u\'2016-Oct-20\', u\'m\': 10, u\'platform\': 3, u\'region\': 8, u\'y\': 2016}, {u\'category\': 0, u\'date\': 1476921600000L, u\'human\': u\'2016-Oct-20\', u\'m\': 10, u\'platform\': 6, u\'region\': 8, u\'y\': 2016}, {u\'category\': 0, u\'date\': 1476921600000L, u\'human\': u\'2016-Oct-20\', u\'m\': 10, u\'platform\': 14, u\'region\': 8, u\'y\': 2016}]}, {u\'cover\': {u\'cloudinary_id\': u\'nfciva4dutrbhybldi8q\', u\'height\': 630, u\'url\': u\'//images.igdb.com/igdb/image/upload/t_thumb/nfciva4dutrbhybldi8q.png\', u\'width\': 1200}, u\'id\': 25748, u\'name\': u\'New Tap Order 2\', u\'release_dates\': [{u\'category\': 0, u\'date\': 1478736000000L, u\'human\': u\'2016-Nov-10\', u\'m\': 11, u\'platform\': 34, u\'region\': 2, u\'y\': 2016}]}, {u\'cover\': {u\'cloudinary_id\': u\'y7lzkdno8hyxcbpigfat\', u\'height\': 518, u\'url\': u\'//images.igdb.com/igdb/image/upload/t_thumb/y7lzkdno8hyxcbpigfat.png\', u\'width\': 1200}, u\'id\': 25741, u\'name\': u\'Ashes of the Singularity: Escalation\', u\'release_dates\': [{u\'category\': 0, u\'date\': 1478736000000L, u\'human\': u\'2016-Nov-10\', u\'m\': 11, u\'platform\': 6, u\'region\': 8, u\'y\': 2016}]}, {u\'id\': 25737, u\'name\': u\'Crafter Game - Incremental Puzzle RPG Game\', u\'release_dates\': [{u\'category\': 0, u\'date\': 1478044800000L, u\'human\': u\'2016-Nov-02\', u\'m\': 11, u\'platform\': 39, u\'region\': 8, u\'y\': 2016}]}, {u\'cover\': {u\'cloudinary_id\': u\'slycbrnktj59nz6x46pe\', u\'height\': 1080, u\'url\': u\'//images.igdb.com/igdb/image/upload/t_thumb/slycbrnktj59nz6x46pe.png\', u\'width\': 1920}, u\'id\': 25716, u\'name\': u\'WayOut\', u\'release_dates\': [{u\'category\': 0, u\'date\': 1478217600000L, u\'human\': u\'2016-Nov-04\', u\'m\': 11, u\'platform\': 6, u\'region\': 8, u\'y\': 2016}]}, {u\'id\': 25714, u\'name\': u\'City Car Driving\', u\'release_dates\': [{u\'category\': 0, u\'date\': 1478131200000L, u\'human\': u\'2016-Nov-03\', u\'m\': 11, u\'platform\': 6, u\'region\': 8, u\'y\': 2016}]}, {u\'cover\': {u\'cloudinary_id\': u\'rjts4llxw0706gf309up\', u\'height\': 400, u\'url\': u\'//images.igdb.com/igdb/image/upload/t_thumb/rjts4llxw0706gf309up.png\', u\'width\': 960}, u\'id\': 25713, u\'name\': u\'Citalis\', u\'release_dates\': [{u\'category\': 0, u\'date\': 1478131200000L, u\'human\': u\'2016-Nov-03\', u\'m\': 11, u\'platform\': 14, u\'region\': 8, u\'y\': 2016}, {u\'category\': 0, u\'date\': 1478131200000L, u\'human\': u\'2016-Nov-03\', u\'m\': 11, u\'platform\': 6, u\'region\': 8, u\'y\': 2016}]}, {u\'cover\': {u\'cloudinary_id\': u\'q1a4s339i7j0xdq9vw8z\', u\'height\': 1024, u\'url\': u\'//images.igdb.com/igdb/image/upload/t_thumb/q1a4s339i7j0xdq9vw8z.png\', u\'width\': 1024}, u\'id\': 25707, u\'name\': u\'Prototype X1\', u\'release_dates\': [{u\'category\': 0, u\'date\': 1478390400000L, u\'human\': u\'2016-Nov-06\', u\'m\': 11, u\'platform\': 34, u\'region\': 8, u\'y\': 2016}]}, {u\'cover\': {u\'cloudinary_id\': u\'brijk3rtnxdle7k12ek8\', u\'height\': 347, u\'url\': u\'//images.igdb.com/igdb/image/upload/t_thumb/brijk3rtnxdle7k12ek8.png\', u\'width\': 618}, u\'id\': 25705, u\'name\': u\'Asteroid Next\', u\'release_dates\': [{u\'category\': 0, u\'date\': 1478044800000L, u\'human\': u\'2016-Nov-02\', u\'m\': 11, u\'platform\': 34, u\'region\': 8, u\'y\': 2016}]}, ...]'
p245
sS'requestStatus'
p246
S"'OK'"
p247
sS'gameRelease'
p248
S"{'date': '05-11-2016.000000', 'platform': 'iOS', 'region': 'World Wide'}"
p249
sS'epochStart'
p250
S'1477983600'
p251
sS'timeStart'
p252
S"'2016-11-01'"
p253
sS's'
S'1478390400.0'
p254
sssS'traceback'
p255
S'Traceback (most recent call last):\n  File "C:\\Users\\xsarah\\Desktop\\xborlandax\\University\\cs183\\web2py\\gluon\\restricted.py", line 227, in restricted\n    exec ccode in environment\n  File "C:\\Users\\xsarah\\Desktop\\xborlandax\\University\\cs183\\web2py\\applications\\GameDayCalendar\\controllers/gamedata.py", line 562, in <module>\n  File "C:\\Users\\xsarah\\Desktop\\xborlandax\\University\\cs183\\web2py\\gluon\\globals.py", line 417, in <lambda>\n    self._caller = lambda f: f()\n  File "C:\\Users\\xsarah\\Desktop\\xborlandax\\University\\cs183\\web2py\\gluon\\cache.py", line 526, in __call__\n    self.time_expire)\n  File "C:\\Users\\xsarah\\Desktop\\xborlandax\\University\\cs183\\web2py\\gluon\\cache.py", line 468, in __call__\n    value = f()\n  File "C:\\Users\\xsarah\\Desktop\\xborlandax\\University\\cs183\\web2py\\gluon\\cache.py", line 525, in <lambda>\n    lambda a=a, b=b: self.func(*a, **b),\n  File "C:\\Users\\xsarah\\Desktop\\xborlandax\\University\\cs183\\web2py\\applications\\GameDayCalendar\\controllers/gamedata.py", line 148, in get_games\n    game[\'release\'][0]=gameRelease\nIndexError: list assignment index out of range\n'
p256
s.